

Microchip MPLAB XC8 Assembler V2.45 build 20230818022343 
                                                                                               Wed Jul 31 17:42:39 2024

Microchip MPLAB XC8 C Compiler v2.45 (Free license) build 20230818022343 Og1 
     1                           	processor	18F4620
     2                           	fnconf	rparam,??,?,0
     3                           	pagewidth 120
     4                           	opt	flic
     5                           	psect	idataCOMRAM,global,class=CODE,delta=1,noexec
     6                           	psect	idataBANK0,global,class=CODE,delta=1,noexec
     7                           	psect	smallconst,global,reloc=2,class=SMALLCONST,delta=1,noexec
     8                           	psect	nvCOMRAM,global,class=COMRAM,space=1,delta=1,lowdata,noexec
     9                           	psect	cinit,global,reloc=2,class=CODE,delta=1
    10                           	psect	bssCOMRAM,global,class=COMRAM,space=1,delta=1,lowdata,noexec
    11                           	psect	dataCOMRAM,global,class=COMRAM,space=1,delta=1,lowdata,noexec
    12                           	psect	dataBANK0,global,class=BANK0,space=1,delta=1,lowdata,noexec
    13                           	psect	cstackBANK0,global,class=BANK0,space=1,delta=1,lowdata,noexec
    14                           	psect	cstackCOMRAM,global,class=COMRAM,space=1,delta=1,lowdata,noexec
    15                           	psect	text0,global,reloc=2,class=CODE,delta=1
    16                           	psect	text1,global,reloc=2,class=CODE,delta=1
    17                           	psect	text2,global,reloc=2,class=CODE,delta=1
    18                           	psect	text3,global,reloc=2,class=CODE,delta=1
    19                           	psect	text4,global,reloc=2,class=CODE,delta=1
    20                           	psect	text5,global,reloc=2,class=CODE,delta=1
    21                           	psect	text6,global,reloc=2,class=CODE,delta=1
    22                           	psect	text7,global,reloc=2,class=CODE,delta=1
    23                           	psect	text8,global,reloc=2,class=CODE,delta=1
    24                           	psect	text9,global,reloc=2,class=CODE,delta=1
    25                           	psect	text10,global,reloc=2,class=CODE,delta=1
    26                           	psect	text11,global,reloc=2,class=CODE,delta=1
    27                           	psect	text12,global,reloc=2,class=CODE,delta=1
    28                           	psect	text13,global,reloc=2,class=CODE,delta=1
    29                           	psect	text14,global,reloc=2,class=CODE,delta=1
    30                           	psect	text15,global,reloc=2,class=CODE,delta=1
    31                           	psect	text16,global,reloc=2,class=CODE,delta=1
    32                           	psect	text17,global,reloc=2,class=CODE,delta=1
    33                           	psect	text18,global,reloc=2,class=CODE,delta=1,group=1
    34                           	psect	text19,global,reloc=2,class=CODE,delta=1,group=1
    35                           	psect	text20,global,reloc=2,class=CODE,delta=1
    36                           	psect	text21,global,reloc=2,class=CODE,delta=1,inline
    37                           	psect	text22,global,reloc=2,class=CODE,delta=1,inline
    38                           	psect	text23,global,reloc=2,class=CODE,delta=1,inline
    39                           	psect	intcode,global,reloc=2,class=CODE,delta=1
    40                           	psect	intcode_body,global,reloc=2,class=CODE,delta=1
    41                           	psect	text25,global,reloc=2,class=CODE,delta=1
    42                           	psect	text26,global,reloc=2,class=CODE,delta=1
    43                           	psect	text27,global,reloc=2,class=CODE,delta=1
    44                           	psect	text28,global,reloc=2,class=CODE,delta=1
    45                           	psect	text29,global,reloc=2,class=CODE,delta=1
    46                           	psect	text30,global,reloc=2,class=CODE,delta=1
    47                           	psect	text31,global,reloc=2,class=CODE,delta=1
    48                           	psect	text32,global,reloc=2,class=CODE,delta=1
    49                           	psect	text33,global,reloc=2,class=CODE,delta=1
    50                           	psect	text34,global,reloc=2,class=CODE,delta=1
    51                           	psect	intsave_regs,global,class=BIGRAM,space=1,delta=1,noexec
    52                           	psect	text35,global,reloc=2,class=CODE,delta=1
    53                           	psect	rparam,global,class=COMRAM,space=1,delta=1,noexec
    54                           	psect	temp,global,ovrld,common,class=COMRAM,space=1,delta=1
    55   000000                     
    56                           ; Generated 23/03/2023 GMT
    57                           ; 
    58                           ; Copyright © 2023, Microchip Technology Inc. and its subsidiaries ("Microchip")
    59                           ; All rights reserved.
    60                           ; 
    61                           ; This software is developed by Microchip Technology Inc. and its subsidiaries ("Microch
      +                          ip").
    62                           ; 
    63                           ; Redistribution and use in source and binary forms, with or without modification, are
    64                           ; permitted provided that the following conditions are met:
    65                           ; 
    66                           ;     1. Redistributions of source code must retain the above copyright notice, this lis
      +                          t of
    67                           ;        conditions and the following disclaimer.
    68                           ; 
    69                           ;     2. Redistributions in binary form must reproduce the above copyright notice, this 
      +                          list
    70                           ;        of conditions and the following disclaimer in the documentation and/or other
    71                           ;        materials provided with the distribution. Publication is not required when
    72                           ;        this file is used in an embedded application.
    73                           ; 
    74                           ;     3. Microchip's name may not be used to endorse or promote products derived from th
      +                          is
    75                           ;        software without specific prior written permission.
    76                           ; 
    77                           ; THIS SOFTWARE IS PROVIDED BY MICROCHIP "AS IS" AND ANY EXPRESS OR IMPLIED WARRANTIES,
    78                           ; INCLUDING, BUT NOT LIMITED TO, THE IMPLIED WARRANTIES OF MERCHANTABILITY AND FITNESS F
      +                          OR
    79                           ; PURPOSE ARE DISCLAIMED.  IN NO EVENT SHALL MICROCHIP BE LIABLE FOR ANY DIRECT, INDIREC
      +                          T,
    80                           ; INCIDENTAL, SPECIAL, EXEMPLARY, OR CONSEQUENTIAL DAMAGES (INCLUDING BUT NOT LIMITED TO
    81                           ; PROCUREMENT OF SUBSTITUTE GOODS OR SERVICES; LOSS OF USE, DATA OR PROFITS; OR BUSINESS
    82                           ; INTERRUPTION) HOWSOEVER CAUSED AND ON ANY THEORY OF LIABILITY, WHETHER IN CONTRACT, ST
      +                          RICT
    83                           ; LIABILITY, OR TORT (INCLUDING NEGLIGENCE OR OTHERWISE) ARISING IN ANY WAY OUT OF THE U
      +                          SE OF
    84                           ; THIS SOFTWARE, EVEN IF ADVISED OF THE POSSIBILITY OF SUCH DAMAGE.
    85                           ; 
    86                           ; 
    87                           ; Code-generator required, PIC18F4620 Definitions
    88                           ; 
    89                           ; SFR Addresses
    90   000000                     
    91                           	psect	idataCOMRAM
    92   002E4A                     __pidataCOMRAM:
    93                           	callstack 0
    94                           
    95                           ;initializer for _lat_reg
    96   002E4A  89                 	db	137
    97   002E4B  0F                 	db	15
    98   002E4C  8A                 	db	138
    99   002E4D  0F                 	db	15
   100   002E4E  8B                 	db	139
   101   002E4F  0F                 	db	15
   102   002E50  8C                 	db	140
   103   002E51  0F                 	db	15
   104   002E52  8D                 	db	141
   105   002E53  0F                 	db	15
   106                           
   107                           ;initializer for _tris_reg
   108   002E54  92                 	db	146
   109   002E55  0F                 	db	15
   110   002E56  93                 	db	147
   111   002E57  0F                 	db	15
   112   002E58  94                 	db	148
   113   002E59  0F                 	db	15
   114   002E5A  95                 	db	149
   115   002E5B  0F                 	db	15
   116   002E5C  96                 	db	150
   117   002E5D  0F                 	db	15
   118                           
   119                           ;initializer for _RB7_Flag
   120   002E5E  01                 	db	1
   121                           
   122                           ;initializer for _RB6_Flag
   123   002E5F  01                 	db	1
   124                           
   125                           ;initializer for _RB5_Flag
   126   002E60  01                 	db	1
   127                           
   128                           ;initializer for _RB4_Flag
   129   002E61  01                 	db	1
   130                           
   131                           ;initializer for _lcd_obj
   132   002E62  28                 	db	40
   133   002E63  30                 	db	48
   134   002E64  03                 	db	3
   135   002E65  0B                 	db	11
   136   002E66  13                 	db	19
   137   002E67  1B                 	db	27
   138   002E68  23                 	db	35
   139   002E69  2B                 	db	43
   140   002E6A  33                 	db	51
   141   002E6B  3B                 	db	59
   142                           
   143                           ;initializer for _keypad_obj
   144   002E6C  02                 	db	2
   145   002E6D  0A                 	db	10
   146   002E6E  12                 	db	18
   147   002E6F  1A                 	db	26
   148   002E70  62                 	db	98
   149   002E71  6A                 	db	106
   150   002E72  72                 	db	114
   151   002E73  7A                 	db	122
   152                           
   153                           ;initializer for _keybad_value
   154   002E74  63                 	db	99
   155                           
   156                           	psect	idataBANK0
   157   002E75                     __pidataBANK0:
   158                           	callstack 0
   159                           
   160                           ;initializer for keypad_u8check_press@F3072
   161   002E75  37                 	db	55
   162   002E76  38                 	db	56
   163   002E77  39                 	db	57
   164   002E78  2F                 	db	47
   165   002E79  34                 	db	52
   166   002E7A  35                 	db	53
   167   002E7B  36                 	db	54
   168   002E7C  2A                 	db	42
   169   002E7D  31                 	db	49
   170   002E7E  32                 	db	50
   171   002E7F  33                 	db	51
   172   002E80  2D                 	db	45
   173   002E81  41                 	db	65
   174   002E82  30                 	db	48
   175   002E83  3D                 	db	61
   176   002E84  2B                 	db	43
   177                           
   178                           ;initializer for _port_reg
   179   002E85  80                 	db	128
   180   002E86  0F                 	db	15
   181   002E87  81                 	db	129
   182   002E88  0F                 	db	15
   183   002E89  82                 	db	130
   184   002E8A  0F                 	db	15
   185   002E8B  83                 	db	131
   186   002E8C  0F                 	db	15
   187   002E8D  84                 	db	132
   188   002E8E  0F                 	db	15
   189                           
   190                           ;initializer for _timer0_obj
   191   002E8F  10                 	db	low _tmr0_isr
   192   002E90  2F                 	db	high _tmr0_isr
   193   002E91  00                 	db	0
   194   002E92  04                 	db	4
   195   002E93  0BDC               	dw	3036
   196   002E95  05                 	db	5
   197                           
   198                           ;initializer for _seven_seg_obj
   199   002E96  00                 	db	0
   200   002E97  08                 	db	8
   201   002E98  10                 	db	16
   202   002E99  18                 	db	24
   203   002E9A  00                 	db	0
   204                           
   205                           	psect	smallconst
   206   001000                     __psmallconst:
   207                           	callstack 0
   208   001000  00                 	db	0
   209   001001                     _btn_values:
   210                           	callstack 0
   211   001001  37                 	db	55
   212   001002  38                 	db	56
   213   001003  39                 	db	57
   214   001004  2F                 	db	47
   215   001005  34                 	db	52
   216   001006  35                 	db	53
   217   001007  36                 	db	54
   218   001008  2A                 	db	42
   219   001009  31                 	db	49
   220   00100A  32                 	db	50
   221   00100B  33                 	db	51
   222   00100C  2D                 	db	45
   223   00100D  23                 	db	35
   224   00100E  30                 	db	48
   225   00100F  3D                 	db	61
   226   001010  2B                 	db	43
   227   001011                     __end_of_btn_values:
   228                           	callstack 0
   229   001011                     _heart:
   230                           	callstack 0
   231   001011  00                 	db	0
   232   001012  0A                 	db	10
   233   001013  1F                 	db	31
   234   001014  1F                 	db	31
   235   001015  0E                 	db	14
   236   001016  04                 	db	4
   237   001017  00                 	db	0
   238   001018  00                 	db	0
   239   001019                     __end_of_heart:
   240                           	callstack 0
   241   001019                     _smile:
   242                           	callstack 0
   243   001019  00                 	db	0
   244   00101A  0A                 	db	10
   245   00101B  0A                 	db	10
   246   00101C  00                 	db	0
   247   00101D  11                 	db	17
   248   00101E  0E                 	db	14
   249   00101F  00                 	db	0
   250   001020  00                 	db	0
   251   001021                     __end_of_smile:
   252                           	callstack 0
   253   000000                     _TMR0L	set	4054
   254   000000                     _TMR0H	set	4055
   255   000000                     _TMR1L	set	4046
   256   000000                     _TMR1H	set	4047
   257   000000                     _INTCON2bits	set	4081
   258   001021                     STR_7:
   259   001021  59                 	db	89	;'Y'
   260   001022  6F                 	db	111	;'o'
   261   001023  75                 	db	117	;'u'
   262   001024  72                 	db	114	;'r'
   263   001025  20                 	db	32
   264   001026  43                 	db	67	;'C'
   265   001027  6C                 	db	108	;'l'
   266   001028  6F                 	db	111	;'o'
   267   001029  63                 	db	99	;'c'
   268   00102A  6B                 	db	107	;'k'
   269   00102B  20                 	db	32
   270   00102C  48                 	db	72	;'H'
   271   00102D  61                 	db	97	;'a'
   272   00102E  73                 	db	115	;'s'
   273   00102F  20                 	db	32
   274   001030  42                 	db	66	;'B'
   275   001031  65                 	db	101	;'e'
   276   001032  65                 	db	101	;'e'
   277   001033  6E                 	db	110	;'n'
   278   001034  20                 	db	32
   279   001035  53                 	db	83	;'S'
   280   001036  65                 	db	101	;'e'
   281   001037  74                 	db	116	;'t'
   282   001038  00                 	db	0
   283   001039                     STR_1:
   284   001039  50                 	db	80	;'P'
   285   00103A  72                 	db	114	;'r'
   286   00103B  65                 	db	101	;'e'
   287   00103C  73                 	db	115	;'s'
   288   00103D  73                 	db	115	;'s'
   289   00103E  20                 	db	32
   290   00103F  31                 	db	49	;'1'
   291   001040  20                 	db	32
   292   001041  54                 	db	84	;'T'
   293   001042  6F                 	db	111	;'o'
   294   001043  20                 	db	32
   295   001044  53                 	db	83	;'S'
   296   001045  65                 	db	101	;'e'
   297   001046  74                 	db	116	;'t'
   298   001047  20                 	db	32
   299   001048  43                 	db	67	;'C'
   300   001049  6C                 	db	108	;'l'
   301   00104A  6F                 	db	111	;'o'
   302   00104B  63                 	db	99	;'c'
   303   00104C  6B                 	db	107	;'k'
   304   00104D  00                 	db	0
   305   00104E                     STR_5:
   306   00104E  49                 	db	73	;'I'
   307   00104F  6E                 	db	110	;'n'
   308   001050  76                 	db	118	;'v'
   309   001051  61                 	db	97	;'a'
   310   001052  6C                 	db	108	;'l'
   311   001053  69                 	db	105	;'i'
   312   001054  64                 	db	100	;'d'
   313   001055  20                 	db	32
   314   001056  4E                 	db	78	;'N'
   315   001057  75                 	db	117	;'u'
   316   001058  6D                 	db	109	;'m'
   317   001059  62                 	db	98	;'b'
   318   00105A  65                 	db	101	;'e'
   319   00105B  72                 	db	114	;'r'
   320   00105C  00                 	db	0
   321   00105D                     STR_9:
   322   00105D  57                 	db	87	;'W'
   323   00105E  72                 	db	114	;'r'
   324   00105F  6F                 	db	111	;'o'
   325   001060  6E                 	db	110	;'n'
   326   001061  67                 	db	103	;'g'
   327   001062  20                 	db	32
   328   001063  43                 	db	67	;'C'
   329   001064  68                 	db	104	;'h'
   330   001065  6F                 	db	111	;'o'
   331   001066  69                 	db	105	;'i'
   332   001067  63                 	db	99	;'c'
   333   001068  65                 	db	101	;'e'
   334   001069  00                 	db	0
   335   00106A                     STR_4:
   336   00106A  73                 	db	115	;'s'
   337   00106B  65                 	db	101	;'e'
   338   00106C  63                 	db	99	;'c'
   339   00106D  6F                 	db	111	;'o'
   340   00106E  6E                 	db	110	;'n'
   341   00106F  64                 	db	100	;'d'
   342   001070  73                 	db	115	;'s'
   343   001071  3D                 	db	61	;'='
   344   001072  2D                 	db	45
   345   001073  2D                 	db	45
   346   001074  00                 	db	0
   347   001075                     STR_3:
   348   001075  6D                 	db	109	;'m'
   349   001076  69                 	db	105	;'i'
   350   001077  6E                 	db	110	;'n'
   351   001078  75                 	db	117	;'u'
   352   001079  74                 	db	116	;'t'
   353   00107A  65                 	db	101	;'e'
   354   00107B  73                 	db	115	;'s'
   355   00107C  3D                 	db	61	;'='
   356   00107D  2D                 	db	45
   357   00107E  2D                 	db	45
   358   00107F  00                 	db	0
   359   001080                     STR_2:
   360   001080  68                 	db	104	;'h'
   361   001081  6F                 	db	111	;'o'
   362   001082  75                 	db	117	;'u'
   363   001083  72                 	db	114	;'r'
   364   001084  73                 	db	115	;'s'
   365   001085  3D                 	db	61	;'='
   366   001086  2D                 	db	45
   367   001087  2D                 	db	45
   368   001088  00                 	db	0
   369   001089                     STR_11:
   370   001089  25                 	db	37
   371   00108A  69                 	db	105	;'i'
   372   00108B  00                 	db	0
   373   00108C  00                 	db	0	; dummy byte at the end
   374   000000                     
   375                           	psect	nvCOMRAM
   376   00007B                     __pnvCOMRAM:
   377                           	callstack 0
   378   00007B                     _ret:
   379                           	callstack 0
   380   00007B                     	ds	1
   381   000000                     _PORTBbits	set	3969
   382   000000                     _PORTE	set	3972
   383   000000                     _PORTD	set	3971
   384   000000                     _PORTC	set	3970
   385   000000                     _PORTB	set	3969
   386   000000                     _PORTA	set	3968
   387   000000                     _LATA	set	3977
   388   000000                     _TRISA	set	3986
   389   000000                     _PIE1bits	set	3997
   390   000000                     _INTCON3bits	set	4080
   391   000000                     _INTCONbits	set	4082
   392   000000                     _TRISE	set	3990
   393   000000                     _TRISD	set	3989
   394   000000                     _TRISC	set	3988
   395   000000                     _TRISB	set	3987
   396   000000                     _LATE	set	3981
   397   000000                     _LATD	set	3980
   398   000000                     _LATC	set	3979
   399   000000                     _LATB	set	3978
   400   000000                     _T1CONbits	set	4045
   401   000000                     _PIR1bits	set	3998
   402   000000                     _T0CONbits	set	4053
   403                           
   404                           ; #config settings
   405                           
   406                           	psect	cinit
   407   002BFA                     __pcinit:
   408                           	callstack 0
   409   002BFA                     start_initialization:
   410                           	callstack 0
   411   002BFA                     __initialization:
   412                           	callstack 0
   413                           
   414                           ; Initialize objects allocated to BANK0 (38 bytes)
   415                           ; load TBLPTR registers with __pidataBANK0
   416   002BFA  0E75               	movlw	low __pidataBANK0
   417   002BFC  6EF6               	movwf	tblptrl,c
   418   002BFE  0E2E               	movlw	high __pidataBANK0
   419   002C00  6EF7               	movwf	tblptrh,c
   420   002C02  0E00               	movlw	low (__pidataBANK0 shr (0+16))
   421   002C04  6EF8               	movwf	tblptru,c
   422   002C06  EE00  F080         	lfsr	0,__pdataBANK0
   423   002C0A  EE10 F026          	lfsr	1,38
   424   002C0E                     copy_data0:
   425   002C0E  0009               	tblrd		*+
   426   002C10  CFF5 FFEE          	movff	tablat,postinc0
   427   002C14  50E5               	movf	postdec1,w,c
   428   002C16  50E1               	movf	fsr1l,w,c
   429   002C18  E1FA               	bnz	copy_data0
   430                           
   431                           ; Initialize objects allocated to COMRAM (43 bytes)
   432                           ; load TBLPTR registers with __pidataCOMRAM
   433   002C1A  0E4A               	movlw	low __pidataCOMRAM
   434   002C1C  6EF6               	movwf	tblptrl,c
   435   002C1E  0E2E               	movlw	high __pidataCOMRAM
   436   002C20  6EF7               	movwf	tblptrh,c
   437   002C22  0E00               	movlw	low (__pidataCOMRAM shr (0+16))
   438   002C24  6EF8               	movwf	tblptru,c
   439   002C26  EE00  F001         	lfsr	0,__pdataCOMRAM
   440   002C2A  EE10 F02B          	lfsr	1,43
   441   002C2E                     copy_data1:
   442   002C2E  0009               	tblrd		*+
   443   002C30  CFF5 FFEE          	movff	tablat,postinc0
   444   002C34  50E5               	movf	postdec1,w,c
   445   002C36  50E1               	movf	fsr1l,w,c
   446   002C38  E1FA               	bnz	copy_data1
   447                           
   448                           ; Clear objects allocated to COMRAM (41 bytes)
   449   002C3A  EE00  F02C         	lfsr	0,__pbssCOMRAM
   450   002C3E  0E29               	movlw	41
   451   002C40                     clear_0:
   452   002C40  6AEE               	clrf	postinc0,c
   453   002C42  06E8               	decf	wreg,f,c
   454   002C44  E1FD               	bnz	clear_0
   455   002C46                     end_of_initialization:
   456                           	callstack 0
   457   002C46                     __end_of__initialization:
   458                           	callstack 0
   459   002C46  907C               	bcf	int$flags,0,c	;clear compiler interrupt flag (level 1)
   460   002C48  927C               	bcf	int$flags,1,c	;clear compiler interrupt flag (level 2)
   461   002C4A  0100               	movlb	0
   462   002C4C  EF47  F008         	goto	_main	;jump to C main() function
   463                           
   464                           	psect	bssCOMRAM
   465   00002C                     __pbssCOMRAM:
   466                           	callstack 0
   467   00002C                     _timer0_preload:
   468                           	callstack 0
   469   00002C                     	ds	2
   470   00002E                     _Timer0_InterruptHandler:
   471                           	callstack 0
   472   00002E                     	ds	2
   473   000030                     _timer1_preload:
   474                           	callstack 0
   475   000030                     	ds	2
   476   000032                     _Timer1_InterruptHandler:
   477                           	callstack 0
   478   000032                     	ds	2
   479   000034                     _RB7_InterruptHandler_LOW:
   480                           	callstack 0
   481   000034                     	ds	2
   482   000036                     _RB7_InterruptHandler_HIGH:
   483                           	callstack 0
   484   000036                     	ds	2
   485   000038                     _RB6_InterruptHandler_LOW:
   486                           	callstack 0
   487   000038                     	ds	2
   488   00003A                     _RB6_InterruptHandler_HIGH:
   489                           	callstack 0
   490   00003A                     	ds	2
   491   00003C                     _RB5_InterruptHandler_LOW:
   492                           	callstack 0
   493   00003C                     	ds	2
   494   00003E                     _RB5_InterruptHandler_HIGH:
   495                           	callstack 0
   496   00003E                     	ds	2
   497   000040                     _RB4_InterruptHandler_LOW:
   498                           	callstack 0
   499   000040                     	ds	2
   500   000042                     _RB4_InterruptHandler_HIGH:
   501                           	callstack 0
   502   000042                     	ds	2
   503   000044                     _INT2_InterruptHandler:
   504                           	callstack 0
   505   000044                     	ds	2
   506   000046                     _INT1_InterruptHandler:
   507                           	callstack 0
   508   000046                     	ds	2
   509   000048                     _INT0_InterruptHandler:
   510                           	callstack 0
   511   000048                     	ds	2
   512   00004A                     _pressed:
   513                           	callstack 0
   514   00004A                     	ds	1
   515   00004B                     _value:
   516                           	callstack 0
   517   00004B                     	ds	1
   518   00004C                     _second_digit:
   519                           	callstack 0
   520   00004C                     	ds	1
   521   00004D                     _first_digit:
   522                           	callstack 0
   523   00004D                     	ds	1
   524   00004E                     _temp_hours:
   525                           	callstack 0
   526   00004E                     	ds	1
   527   00004F                     _hours:
   528                           	callstack 0
   529   00004F                     	ds	1
   530   000050                     _temp_minutes:
   531                           	callstack 0
   532   000050                     	ds	1
   533   000051                     _minutes:
   534                           	callstack 0
   535   000051                     	ds	1
   536   000052                     _temp_seconeds:
   537                           	callstack 0
   538   000052                     	ds	1
   539   000053                     _seconds:
   540                           	callstack 0
   541   000053                     	ds	1
   542   000054                     _retpad:
   543                           	callstack 0
   544   000054                     	ds	1
   545                           
   546                           	psect	dataCOMRAM
   547   000001                     __pdataCOMRAM:
   548                           	callstack 0
   549   000001                     _lat_reg:
   550                           	callstack 0
   551   000001                     	ds	10
   552   00000B                     _tris_reg:
   553                           	callstack 0
   554   00000B                     	ds	10
   555   000015                     _RB7_Flag:
   556                           	callstack 0
   557   000015                     	ds	1
   558   000016                     _RB6_Flag:
   559                           	callstack 0
   560   000016                     	ds	1
   561   000017                     _RB5_Flag:
   562                           	callstack 0
   563   000017                     	ds	1
   564   000018                     _RB4_Flag:
   565                           	callstack 0
   566   000018                     	ds	1
   567   000019                     _lcd_obj:
   568                           	callstack 0
   569   000019                     	ds	10
   570   000023                     _keypad_obj:
   571                           	callstack 0
   572   000023                     	ds	8
   573   00002B                     _keybad_value:
   574                           	callstack 0
   575   00002B                     	ds	1
   576                           
   577                           	psect	dataBANK0
   578   000080                     __pdataBANK0:
   579                           	callstack 0
   580   000080                     keypad_u8check_press@F3072:
   581                           	callstack 0
   582   000080                     	ds	16
   583   000090                     _port_reg:
   584                           	callstack 0
   585   000090                     	ds	10
   586   00009A                     _timer0_obj:
   587                           	callstack 0
   588   00009A                     	ds	7
   589   0000A1                     _seven_seg_obj:
   590                           	callstack 0
   591   0000A1                     	ds	5
   592                           
   593                           	psect	cstackBANK0
   594   0000A6                     __pcstackBANK0:
   595                           	callstack 0
   596   0000A6                     ??_main:
   597                           
   598                           ; 1 bytes @ 0x0
   599   0000A6                     	ds	2
   600                           
   601                           	psect	cstackCOMRAM
   602   000055                     __pcstackCOMRAM:
   603                           	callstack 0
   604   000055                     RB4_ISR@RB4_Source:
   605                           	callstack 0
   606   000055                     RB5_ISR@RB5_Source:
   607                           	callstack 0
   608   000055                     RB6_ISR@RB6_Source:
   609                           	callstack 0
   610   000055                     RB7_ISR@RB7_Source:
   611                           	callstack 0
   612                           
   613                           ; 1 bytes @ 0x0
   614   000055                     	ds	1
   615   000056                     ??_InterruptManager:
   616                           
   617                           ; 1 bytes @ 0x1
   618   000056                     	ds	2
   619   000058                     ?___awdiv:
   620                           	callstack 0
   621   000058                     ?___awmod:
   622                           	callstack 0
   623   000058                     gpio_pin_direction_init@_pin_config:
   624                           	callstack 0
   625   000058                     gpio_pin_write_logic@_pin_config:
   626                           	callstack 0
   627   000058                     gpio_pin_read_logic@_pin_config:
   628                           	callstack 0
   629   000058                     gpio_port_direction_init@direction:
   630                           	callstack 0
   631   000058                     Timer0_prescaler_config@timer:
   632                           	callstack 0
   633   000058                     Timer0_Mode_Select@timer:
   634                           	callstack 0
   635   000058                     Timer0_Reg_Size@timer:
   636                           	callstack 0
   637   000058                     ___awdiv@dividend:
   638                           	callstack 0
   639   000058                     ___awmod@dividend:
   640                           	callstack 0
   641                           
   642                           ; 2 bytes @ 0x3
   643   000058                     	ds	1
   644   000059                     ??_gpio_port_direction_init:
   645   000059                     ??_gpio_pin_direction_init:
   646   000059                     ??_Timer0_prescaler_config:
   647   000059                     gpio_pin_write_logic@logic:
   648                           	callstack 0
   649   000059                     gpio_pin_read_logic@logic:
   650                           	callstack 0
   651                           
   652                           ; 1 bytes @ 0x4
   653   000059                     	ds	1
   654   00005A                     ??_gpio_pin_write_logic:
   655   00005A                     ??_gpio_pin_read_logic:
   656   00005A                     Timer0_Init@timer:
   657                           	callstack 0
   658   00005A                     ___awdiv@divisor:
   659                           	callstack 0
   660   00005A                     ___awmod@divisor:
   661                           	callstack 0
   662                           
   663                           ; 2 bytes @ 0x5
   664   00005A                     	ds	1
   665   00005B                     ??_Timer0_Init:
   666   00005B                     gpio_port_direction_init@port:
   667                           	callstack 0
   668                           
   669                           ; 1 bytes @ 0x6
   670   00005B                     	ds	1
   671   00005C                     ___awdiv@counter:
   672                           	callstack 0
   673   00005C                     ___awmod@counter:
   674                           	callstack 0
   675                           
   676                           ; 1 bytes @ 0x7
   677   00005C                     	ds	1
   678   00005D                     Timer0_Init@ret:
   679                           	callstack 0
   680   00005D                     ___awdiv@sign:
   681                           	callstack 0
   682   00005D                     ___awmod@sign:
   683                           	callstack 0
   684                           
   685                           ; 1 bytes @ 0x8
   686   00005D                     	ds	1
   687   00005E                     gpio_pin_direction_init@ret:
   688                           	callstack 0
   689   00005E                     gpio_pin_read_logic@ret:
   690                           	callstack 0
   691   00005E                     ___awdiv@quotient:
   692                           	callstack 0
   693                           
   694                           ; 2 bytes @ 0x9
   695   00005E                     	ds	1
   696   00005F                     gpio_pin_write_logic@ret:
   697                           	callstack 0
   698                           
   699                           ; 1 bytes @ 0xA
   700   00005F                     	ds	1
   701   000060                     keypad_init@keypad_obj:
   702                           	callstack 0
   703   000060                     keypad_get_value@keypad_obj:
   704                           	callstack 0
   705   000060                     lcd_8bit_send_enable@lcd:
   706                           	callstack 0
   707   000060                     seven_segment_init@seg:
   708                           	callstack 0
   709   000060                     gpio_port_write_logic@logic:
   710                           	callstack 0
   711                           
   712                           ; 1 bytes @ 0xB
   713   000060                     	ds	1
   714   000061                     ??_gpio_port_write_logic:
   715   000061                     keypad_init@ret:
   716                           	callstack 0
   717   000061                     keypad_get_value@value:
   718                           	callstack 0
   719   000061                     lcd_8bit_send_enable@ret:
   720                           	callstack 0
   721   000061                     seven_segment_init@ret:
   722                           	callstack 0
   723                           
   724                           ; 1 bytes @ 0xC
   725   000061                     	ds	1
   726   000062                     ??_keypad_get_value:
   727   000062                     keypad_init@c_counter:
   728                           	callstack 0
   729   000062                     lcd_8bit_send_command@lcd:
   730                           	callstack 0
   731   000062                     lcd_8bit_send_char_data@lcd:
   732                           	callstack 0
   733                           
   734                           ; 1 bytes @ 0xD
   735   000062                     	ds	1
   736   000063                     keypad_init@r_counter:
   737                           	callstack 0
   738   000063                     keypad_get_value@col_logic:
   739                           	callstack 0
   740   000063                     lcd_8bit_send_command@command:
   741                           	callstack 0
   742   000063                     lcd_8bit_send_char_data@data:
   743                           	callstack 0
   744   000063                     gpio_port_write_logic@port:
   745                           	callstack 0
   746                           
   747                           ; 1 bytes @ 0xE
   748   000063                     	ds	1
   749   000064                     ??_lcd_8bit_send_command:
   750   000064                     ??_lcd_8bit_send_char_data:
   751   000064                     keypad_get_value@l_counter:
   752                           	callstack 0
   753                           
   754                           ; 1 bytes @ 0xF
   755   000064                     	ds	1
   756   000065                     keypad_get_value@r_counter:
   757                           	callstack 0
   758                           
   759                           ; 1 bytes @ 0x10
   760   000065                     	ds	1
   761   000066                     keypad_get_value@c_counter:
   762                           	callstack 0
   763   000066                     lcd_8bit_send_command@ret:
   764                           	callstack 0
   765   000066                     lcd_8bit_send_char_data@ret:
   766                           	callstack 0
   767                           
   768                           ; 1 bytes @ 0x11
   769   000066                     	ds	1
   770   000067                     lcd_8bit_send_command@count:
   771                           	callstack 0
   772   000067                     lcd_8bit_send_char_data@count:
   773                           	callstack 0
   774                           
   775                           ; 1 bytes @ 0x12
   776   000067                     	ds	1
   777   000068                     lcd_8bit_init@lcd:
   778                           	callstack 0
   779   000068                     lcd_8bit_send_string@lcd:
   780                           	callstack 0
   781   000068                     lcd_8bit_set_cursor@lcd:
   782                           	callstack 0
   783                           
   784                           ; 1 bytes @ 0x13
   785   000068                     	ds	1
   786   000069                     ??_lcd_8bit_init:
   787   000069                     lcd_8bit_send_string@str:
   788                           	callstack 0
   789   000069                     lcd_8bit_set_cursor@row:
   790                           	callstack 0
   791                           
   792                           ; 1 bytes @ 0x14
   793   000069                     	ds	1
   794   00006A                     lcd_8bit_init@ret:
   795                           	callstack 0
   796   00006A                     lcd_8bit_send_string@ret:
   797                           	callstack 0
   798   00006A                     lcd_8bit_set_cursor@column:
   799                           	callstack 0
   800                           
   801                           ; 1 bytes @ 0x15
   802   00006A                     	ds	1
   803   00006B                     ??_lcd_8bit_set_cursor:
   804                           
   805                           ; 1 bytes @ 0x16
   806   00006B                     	ds	2
   807   00006D                     lcd_8bit_set_cursor@ret:
   808                           	callstack 0
   809                           
   810                           ; 1 bytes @ 0x18
   811   00006D                     	ds	1
   812   00006E                     lcd_8bit_send_char_data_pos@lcd:
   813                           	callstack 0
   814   00006E                     lcd_8bit_send_string_pos@lcd:
   815                           	callstack 0
   816                           
   817                           ; 1 bytes @ 0x19
   818   00006E                     	ds	1
   819   00006F                     lcd_8bit_send_char_data_pos@row:
   820                           	callstack 0
   821   00006F                     lcd_8bit_send_string_pos@row:
   822                           	callstack 0
   823                           
   824                           ; 1 bytes @ 0x1A
   825   00006F                     	ds	1
   826   000070                     lcd_8bit_send_char_data_pos@col:
   827                           	callstack 0
   828   000070                     lcd_8bit_send_string_pos@col:
   829                           	callstack 0
   830                           
   831                           ; 1 bytes @ 0x1B
   832   000070                     	ds	1
   833   000071                     lcd_8bit_send_char_data_pos@data:
   834                           	callstack 0
   835   000071                     lcd_8bit_send_string_pos@str:
   836                           	callstack 0
   837                           
   838                           ; 1 bytes @ 0x1C
   839   000071                     	ds	1
   840   000072                     lcd_8bit_send_char_data_pos@ret:
   841                           	callstack 0
   842   000072                     lcd_8bit_send_string_pos@ret:
   843                           	callstack 0
   844                           
   845                           ; 1 bytes @ 0x1D
   846   000072                     	ds	1
   847   000073                     lcd_8bit_send_custom_char@lcd:
   848                           	callstack 0
   849                           
   850                           ; 1 bytes @ 0x1E
   851   000073                     	ds	1
   852   000074                     lcd_8bit_send_custom_char@row:
   853                           	callstack 0
   854                           
   855                           ; 1 bytes @ 0x1F
   856   000074                     	ds	1
   857   000075                     lcd_8bit_send_custom_char@col:
   858                           	callstack 0
   859                           
   860                           ; 1 bytes @ 0x20
   861   000075                     	ds	1
   862   000076                     lcd_8bit_send_custom_char@_char:
   863                           	callstack 0
   864                           
   865                           ; 1 bytes @ 0x21
   866   000076                     	ds	1
   867   000077                     lcd_8bit_send_custom_char@mem_pos:
   868                           	callstack 0
   869                           
   870                           ; 1 bytes @ 0x22
   871   000077                     	ds	1
   872   000078                     ??_lcd_8bit_send_custom_char:
   873                           
   874                           ; 1 bytes @ 0x23
   875   000078                     	ds	1
   876   000079                     lcd_8bit_send_custom_char@ret:
   877                           	callstack 0
   878                           
   879                           ; 1 bytes @ 0x24
   880   000079                     	ds	1
   881   00007A                     lcd_8bit_send_custom_char@count:
   882                           	callstack 0
   883                           
   884                           ; 1 bytes @ 0x25
   885   00007A                     	ds	1
   886                           
   887 ;;
   888 ;;Main: autosize = 0, tempsize = 2, incstack = 0, save=0
   889 ;;
   890 ;; *************** function _main *****************
   891 ;; Defined at:
   892 ;;		line 141 in file "application.c"
   893 ;; Parameters:    Size  Location     Type
   894 ;;		None
   895 ;; Auto vars:     Size  Location     Type
   896 ;;		None
   897 ;; Return value:  Size  Location     Type
   898 ;;                  2   68[None  ] int 
   899 ;; Registers used:
   900 ;;		wreg, fsr1l, fsr1h, fsr2l, fsr2h, status,2, status,0, tblptrl, tblptrh, tblptru, prodl, prodh, cstack
   901 ;; Tracked objects:
   902 ;;		On entry : 0/0
   903 ;;		On exit  : 0/0
   904 ;;		Unchanged: 0/0
   905 ;; Data sizes:     COMRAM   BANK0   BANK1   BANK2   BANK3   BANK4   BANK5   BANK6   BANK7   BANK8   BANK9  BANK10  BANK1
      +1  BANK12  BANK13  BANK14  BANK15
   906 ;;      Params:         0       0       0       0       0       0       0       0       0       0       0       0       
      +0       0       0       0       0
   907 ;;      Locals:         0       0       0       0       0       0       0       0       0       0       0       0       
      +0       0       0       0       0
   908 ;;      Temps:          0       2       0       0       0       0       0       0       0       0       0       0       
      +0       0       0       0       0
   909 ;;      Totals:         0       2       0       0       0       0       0       0       0       0       0       0       
      +0       0       0       0       0
   910 ;;Total ram usage:        2 bytes
   911 ;; Hardware stack levels required when called: 9
   912 ;; This function calls:
   913 ;;		_Timer0_Init
   914 ;;		___awdiv
   915 ;;		___awmod
   916 ;;		_gpio_port_direction_init
   917 ;;		_gpio_port_write_logic
   918 ;;		_keypad_get_value
   919 ;;		_keypad_init
   920 ;;		_lcd_8bit_init
   921 ;;		_lcd_8bit_send_char_data_pos
   922 ;;		_lcd_8bit_send_command
   923 ;;		_lcd_8bit_send_custom_char
   924 ;;		_lcd_8bit_send_string_pos
   925 ;;		_seven_segment_init
   926 ;; This function is called by:
   927 ;;		Startup code after reset
   928 ;; This function uses a non-reentrant model
   929 ;;
   930                           
   931                           	psect	text0
   932   00108E                     __ptext0:
   933                           	callstack 0
   934   00108E                     _main:
   935                           	callstack 22
   936   00108E                     
   937                           ;application.c: 142:     ret = lcd_8bit_init(&lcd_obj);
   938   00108E  0E19               	movlw	low _lcd_obj
   939   001090  6E68               	movwf	lcd_8bit_init@lcd^0,c
   940   001092  ECDD  F00F         	call	_lcd_8bit_init	;wreg free
   941   001096  6E7B               	movwf	_ret^0,c
   942                           
   943                           ;application.c: 144:     ret = keypad_init(&keypad_obj);
   944   001098  0E23               	movlw	low _keypad_obj
   945   00109A  6E60               	movwf	keypad_init@keypad_obj^0,c
   946   00109C  EC96  F014         	call	_keypad_init	;wreg free
   947   0010A0  6E7B               	movwf	_ret^0,c
   948                           
   949                           ;application.c: 145:     ret = seven_segment_init(&seven_seg_obj);
   950   0010A2  0EA1               	movlw	low _seven_seg_obj
   951   0010A4  6E60               	movwf	seven_segment_init@seg^0,c
   952   0010A6  ECF1  F012         	call	_seven_segment_init	;wreg free
   953   0010AA  6E7B               	movwf	_ret^0,c
   954   0010AC                     
   955                           ;application.c: 146:     ret = Timer0_Init(&timer0_obj);
   956   0010AC  0E9A               	movlw	low _timer0_obj
   957   0010AE  6E5A               	movwf	Timer0_Init@timer^0,c
   958   0010B0  EC4F  F014         	call	_Timer0_Init	;wreg free
   959   0010B4  6E7B               	movwf	_ret^0,c
   960   0010B6                     
   961                           ;application.c: 147:     ret = gpio_port_direction_init(PORTB_INDEX , GPIO_OUTPUT);
   962   0010B6  0E00               	movlw	0
   963   0010B8  6E58               	movwf	gpio_port_direction_init@direction^0,c
   964   0010BA  0E01               	movlw	1
   965   0010BC  ECD0  F016         	call	_gpio_port_direction_init
   966   0010C0  6E7B               	movwf	_ret^0,c
   967   0010C2                     
   968                           ;application.c: 148:     ret = lcd_8bit_send_string_pos(&lcd_obj,1,1,"Press 1 To Set Clo
      +                          ck");
   969   0010C2  0E19               	movlw	low _lcd_obj
   970   0010C4  6E6E               	movwf	lcd_8bit_send_string_pos@lcd^0,c
   971   0010C6  0E01               	movlw	1
   972   0010C8  6E6F               	movwf	lcd_8bit_send_string_pos@row^0,c
   973   0010CA  0E01               	movlw	1
   974   0010CC  6E70               	movwf	lcd_8bit_send_string_pos@col^0,c
   975   0010CE  0E39               	movlw	low STR_1
   976   0010D0  6E71               	movwf	lcd_8bit_send_string_pos@str^0,c
   977   0010D2  EC51  F016         	call	_lcd_8bit_send_string_pos	;wreg free
   978   0010D6  6E7B               	movwf	_ret^0,c
   979   0010D8                     l4635:
   980                           
   981                           ;application.c: 151:             ret = gpio_port_write_logic(PORTB_INDEX, 0x01);
   982   0010D8  0E01               	movlw	1
   983   0010DA  6E60               	movwf	gpio_port_write_logic@logic^0,c
   984   0010DC  0E01               	movlw	1
   985   0010DE  ECB3  F016         	call	_gpio_port_write_logic
   986   0010E2  6E7B               	movwf	_ret^0,c
   987   0010E4                     
   988                           ;application.c: 152:             ret = gpio_port_write_logic(PORTA_INDEX, ((uint8)(hours
      +                          /10)));
   989   0010E4  C04F  F058         	movff	_hours,___awdiv@dividend
   990   0010E8  6A59               	clrf	(___awdiv@dividend+1)^0,c
   991   0010EA  0E00               	movlw	0
   992   0010EC  6E5B               	movwf	(___awdiv@divisor+1)^0,c
   993   0010EE  0E0A               	movlw	10
   994   0010F0  6E5A               	movwf	___awdiv@divisor^0,c
   995   0010F2  EC8F  F012         	call	___awdiv	;wreg free
   996   0010F6  5058               	movf	?___awdiv^0,w,c
   997   0010F8  6E60               	movwf	gpio_port_write_logic@logic^0,c
   998   0010FA  0E00               	movlw	0
   999   0010FC  ECB3  F016         	call	_gpio_port_write_logic
  1000   001100  6E7B               	movwf	_ret^0,c
  1001   001102                     
  1002                           ;application.c: 153:             _delay((unsigned long)((5)*(8000000UL/4000.0)));
  1003   001102  0E0D               	movlw	13
  1004   001104  0100               	movlb	0	; () banked
  1005   001106  6FA6               	movwf	??_main& (0+255),b
  1006   001108  0EFB               	movlw	251
  1007   00110A                     u5757:
  1008   00110A  2EE8               	decfsz	wreg,f,c
  1009   00110C  D7FE               	bra	u5757
  1010   00110E  2FA6               	decfsz	??_main& (0+255),f,b
  1011   001110  D7FC               	bra	u5757
  1012   001112  D000               	nop2	
  1013   001114                     
  1014                           ;application.c: 154:             ret = gpio_port_write_logic(PORTB_INDEX, 0x02);
  1015   001114  0E02               	movlw	2
  1016   001116  6E60               	movwf	gpio_port_write_logic@logic^0,c
  1017   001118  0E01               	movlw	1
  1018   00111A  ECB3  F016         	call	_gpio_port_write_logic
  1019   00111E  6E7B               	movwf	_ret^0,c
  1020   001120                     
  1021                           ;application.c: 155:             ret = gpio_port_write_logic(PORTA_INDEX, ((uint8)(hours
      +                          %10)));
  1022   001120  C04F  F058         	movff	_hours,___awmod@dividend
  1023   001124  6A59               	clrf	(___awmod@dividend+1)^0,c
  1024   001126  0E00               	movlw	0
  1025   001128  6E5B               	movwf	(___awmod@divisor+1)^0,c
  1026   00112A  0E0A               	movlw	10
  1027   00112C  6E5A               	movwf	___awmod@divisor^0,c
  1028   00112E  ECA5  F013         	call	___awmod	;wreg free
  1029   001132  5058               	movf	?___awmod^0,w,c
  1030   001134  6E60               	movwf	gpio_port_write_logic@logic^0,c
  1031   001136  0E00               	movlw	0
  1032   001138  ECB3  F016         	call	_gpio_port_write_logic
  1033   00113C  6E7B               	movwf	_ret^0,c
  1034   00113E                     
  1035                           ;application.c: 156:             _delay((unsigned long)((5)*(8000000UL/4000.0)));
  1036   00113E  0E0D               	movlw	13
  1037   001140  0100               	movlb	0	; () banked
  1038   001142  6FA6               	movwf	??_main& (0+255),b
  1039   001144  0EFB               	movlw	251
  1040   001146                     u5767:
  1041   001146  2EE8               	decfsz	wreg,f,c
  1042   001148  D7FE               	bra	u5767
  1043   00114A  2FA6               	decfsz	??_main& (0+255),f,b
  1044   00114C  D7FC               	bra	u5767
  1045   00114E  D000               	nop2	
  1046   001150                     
  1047                           ;application.c: 157:             ret = gpio_port_write_logic(PORTB_INDEX, 0x04);
  1048   001150  0E04               	movlw	4
  1049   001152  6E60               	movwf	gpio_port_write_logic@logic^0,c
  1050   001154  0E01               	movlw	1
  1051   001156  ECB3  F016         	call	_gpio_port_write_logic
  1052   00115A  6E7B               	movwf	_ret^0,c
  1053   00115C                     
  1054                           ;application.c: 158:             ret = gpio_port_write_logic(PORTA_INDEX, ((uint8)(minut
      +                          es/10)));
  1055   00115C  C051  F058         	movff	_minutes,___awdiv@dividend
  1056   001160  6A59               	clrf	(___awdiv@dividend+1)^0,c
  1057   001162  0E00               	movlw	0
  1058   001164  6E5B               	movwf	(___awdiv@divisor+1)^0,c
  1059   001166  0E0A               	movlw	10
  1060   001168  6E5A               	movwf	___awdiv@divisor^0,c
  1061   00116A  EC8F  F012         	call	___awdiv	;wreg free
  1062   00116E  5058               	movf	?___awdiv^0,w,c
  1063   001170  6E60               	movwf	gpio_port_write_logic@logic^0,c
  1064   001172  0E00               	movlw	0
  1065   001174  ECB3  F016         	call	_gpio_port_write_logic
  1066   001178  6E7B               	movwf	_ret^0,c
  1067   00117A                     
  1068                           ;application.c: 159:             _delay((unsigned long)((5)*(8000000UL/4000.0)));
  1069   00117A  0E0D               	movlw	13
  1070   00117C  0100               	movlb	0	; () banked
  1071   00117E  6FA6               	movwf	??_main& (0+255),b
  1072   001180  0EFB               	movlw	251
  1073   001182                     u5777:
  1074   001182  2EE8               	decfsz	wreg,f,c
  1075   001184  D7FE               	bra	u5777
  1076   001186  2FA6               	decfsz	??_main& (0+255),f,b
  1077   001188  D7FC               	bra	u5777
  1078   00118A  D000               	nop2	
  1079   00118C                     
  1080                           ;application.c: 160:             ret = gpio_port_write_logic(PORTB_INDEX, 0x08);
  1081   00118C  0E08               	movlw	8
  1082   00118E  6E60               	movwf	gpio_port_write_logic@logic^0,c
  1083   001190  0E01               	movlw	1
  1084   001192  ECB3  F016         	call	_gpio_port_write_logic
  1085   001196  6E7B               	movwf	_ret^0,c
  1086   001198                     
  1087                           ;application.c: 161:             ret = gpio_port_write_logic(PORTA_INDEX, ((uint8)(minut
      +                          es%10)));
  1088   001198  C051  F058         	movff	_minutes,___awmod@dividend
  1089   00119C  6A59               	clrf	(___awmod@dividend+1)^0,c
  1090   00119E  0E00               	movlw	0
  1091   0011A0  6E5B               	movwf	(___awmod@divisor+1)^0,c
  1092   0011A2  0E0A               	movlw	10
  1093   0011A4  6E5A               	movwf	___awmod@divisor^0,c
  1094   0011A6  ECA5  F013         	call	___awmod	;wreg free
  1095   0011AA  5058               	movf	?___awmod^0,w,c
  1096   0011AC  6E60               	movwf	gpio_port_write_logic@logic^0,c
  1097   0011AE  0E00               	movlw	0
  1098   0011B0  ECB3  F016         	call	_gpio_port_write_logic
  1099   0011B4  6E7B               	movwf	_ret^0,c
  1100   0011B6                     
  1101                           ;application.c: 162:             _delay((unsigned long)((5)*(8000000UL/4000.0)));
  1102   0011B6  0E0D               	movlw	13
  1103   0011B8  0100               	movlb	0	; () banked
  1104   0011BA  6FA6               	movwf	??_main& (0+255),b
  1105   0011BC  0EFB               	movlw	251
  1106   0011BE                     u5787:
  1107   0011BE  2EE8               	decfsz	wreg,f,c
  1108   0011C0  D7FE               	bra	u5787
  1109   0011C2  2FA6               	decfsz	??_main& (0+255),f,b
  1110   0011C4  D7FC               	bra	u5787
  1111   0011C6  D000               	nop2	
  1112   0011C8                     
  1113                           ;application.c: 163:             ret = gpio_port_write_logic(PORTB_INDEX, 0x10);
  1114   0011C8  0E10               	movlw	16
  1115   0011CA  6E60               	movwf	gpio_port_write_logic@logic^0,c
  1116   0011CC  0E01               	movlw	1
  1117   0011CE  ECB3  F016         	call	_gpio_port_write_logic
  1118   0011D2  6E7B               	movwf	_ret^0,c
  1119   0011D4                     
  1120                           ;application.c: 164:             ret = gpio_port_write_logic(PORTA_INDEX, ((uint8)(secon
      +                          ds/10)));
  1121   0011D4  C053  F058         	movff	_seconds,___awdiv@dividend
  1122   0011D8  6A59               	clrf	(___awdiv@dividend+1)^0,c
  1123   0011DA  0E00               	movlw	0
  1124   0011DC  6E5B               	movwf	(___awdiv@divisor+1)^0,c
  1125   0011DE  0E0A               	movlw	10
  1126   0011E0  6E5A               	movwf	___awdiv@divisor^0,c
  1127   0011E2  EC8F  F012         	call	___awdiv	;wreg free
  1128   0011E6  5058               	movf	?___awdiv^0,w,c
  1129   0011E8  6E60               	movwf	gpio_port_write_logic@logic^0,c
  1130   0011EA  0E00               	movlw	0
  1131   0011EC  ECB3  F016         	call	_gpio_port_write_logic
  1132   0011F0  6E7B               	movwf	_ret^0,c
  1133   0011F2                     
  1134                           ;application.c: 165:             _delay((unsigned long)((5)*(8000000UL/4000.0)));
  1135   0011F2  0E0D               	movlw	13
  1136   0011F4  0100               	movlb	0	; () banked
  1137   0011F6  6FA6               	movwf	??_main& (0+255),b
  1138   0011F8  0EFB               	movlw	251
  1139   0011FA                     u5797:
  1140   0011FA  2EE8               	decfsz	wreg,f,c
  1141   0011FC  D7FE               	bra	u5797
  1142   0011FE  2FA6               	decfsz	??_main& (0+255),f,b
  1143   001200  D7FC               	bra	u5797
  1144   001202  D000               	nop2	
  1145   001204                     
  1146                           ;application.c: 166:             ret = gpio_port_write_logic(PORTB_INDEX, 0x20);
  1147   001204  0E20               	movlw	32
  1148   001206  6E60               	movwf	gpio_port_write_logic@logic^0,c
  1149   001208  0E01               	movlw	1
  1150   00120A  ECB3  F016         	call	_gpio_port_write_logic
  1151   00120E  6E7B               	movwf	_ret^0,c
  1152   001210                     
  1153                           ;application.c: 167:             ret = gpio_port_write_logic(PORTA_INDEX, ((uint8)(secon
      +                          ds%10)));
  1154   001210  C053  F058         	movff	_seconds,___awmod@dividend
  1155   001214  6A59               	clrf	(___awmod@dividend+1)^0,c
  1156   001216  0E00               	movlw	0
  1157   001218  6E5B               	movwf	(___awmod@divisor+1)^0,c
  1158   00121A  0E0A               	movlw	10
  1159   00121C  6E5A               	movwf	___awmod@divisor^0,c
  1160   00121E  ECA5  F013         	call	___awmod	;wreg free
  1161   001222  5058               	movf	?___awmod^0,w,c
  1162   001224  6E60               	movwf	gpio_port_write_logic@logic^0,c
  1163   001226  0E00               	movlw	0
  1164   001228  ECB3  F016         	call	_gpio_port_write_logic
  1165   00122C  6E7B               	movwf	_ret^0,c
  1166   00122E                     
  1167                           ;application.c: 168:             _delay((unsigned long)((5)*(8000000UL/4000.0)));
  1168   00122E  0E0D               	movlw	13
  1169   001230  0100               	movlb	0	; () banked
  1170   001232  6FA6               	movwf	??_main& (0+255),b
  1171   001234  0EFB               	movlw	251
  1172   001236                     u5807:
  1173   001236  2EE8               	decfsz	wreg,f,c
  1174   001238  D7FE               	bra	u5807
  1175   00123A  2FA6               	decfsz	??_main& (0+255),f,b
  1176   00123C  D7FC               	bra	u5807
  1177   00123E  D000               	nop2	
  1178   001240                     
  1179                           ;application.c: 169:             if(seconds == 60){
  1180   001240  0E3C               	movlw	60
  1181   001242  1853               	xorwf	_seconds^0,w,c
  1182   001244  A4D8               	btfss	status,2,c
  1183   001246  EF27  F009         	goto	u4851
  1184   00124A  EF29  F009         	goto	u4850
  1185   00124E                     u4851:
  1186   00124E  EF2C  F009         	goto	l4677
  1187   001252                     u4850:
  1188   001252                     
  1189                           ;application.c: 170:                 seconds = 0;
  1190   001252  0E00               	movlw	0
  1191   001254  6E53               	movwf	_seconds^0,c
  1192   001256                     
  1193                           ;application.c: 171:                 minutes++;
  1194   001256  2A51               	incf	_minutes^0,f,c
  1195   001258                     l4677:
  1196                           
  1197                           ;application.c: 174:             if(minutes == 60){
  1198   001258  0E3C               	movlw	60
  1199   00125A  1851               	xorwf	_minutes^0,w,c
  1200   00125C  A4D8               	btfss	status,2,c
  1201   00125E  EF33  F009         	goto	u4861
  1202   001262  EF35  F009         	goto	u4860
  1203   001266                     u4861:
  1204   001266  EF38  F009         	goto	l4683
  1205   00126A                     u4860:
  1206   00126A                     
  1207                           ;application.c: 175:                 minutes = 0;
  1208   00126A  0E00               	movlw	0
  1209   00126C  6E51               	movwf	_minutes^0,c
  1210   00126E                     
  1211                           ;application.c: 176:                 hours++;
  1212   00126E  2A4F               	incf	_hours^0,f,c
  1213   001270                     l4683:
  1214                           
  1215                           ;application.c: 179:             if(hours == 24){
  1216   001270  0E18               	movlw	24
  1217   001272  184F               	xorwf	_hours^0,w,c
  1218   001274  A4D8               	btfss	status,2,c
  1219   001276  EF3F  F009         	goto	u4871
  1220   00127A  EF41  F009         	goto	u4870
  1221   00127E                     u4871:
  1222   00127E  EF43  F009         	goto	l75
  1223   001282                     u4870:
  1224   001282                     
  1225                           ;application.c: 180:                 hours=0;
  1226   001282  0E00               	movlw	0
  1227   001284  6E4F               	movwf	_hours^0,c
  1228   001286                     l75:
  1229                           
  1230                           ;application.c: 183:            temp_seconeds = seconds;
  1231   001286  C053  F052         	movff	_seconds,_temp_seconeds
  1232                           
  1233                           ;application.c: 184:            temp_minutes = minutes;
  1234   00128A  C051  F050         	movff	_minutes,_temp_minutes
  1235                           
  1236                           ;application.c: 185:            temp_hours = hours;
  1237   00128E  C04F  F04E         	movff	_hours,_temp_hours
  1238   001292                     
  1239                           ;application.c: 187:             value = keypad_get_value(&keypad_obj , &keybad_value);
  1240   001292  0E23               	movlw	low _keypad_obj
  1241   001294  6E60               	movwf	keypad_get_value@keypad_obj^0,c
  1242   001296  0E2B               	movlw	low _keybad_value
  1243   001298  6E61               	movwf	keypad_get_value@value^0,c
  1244   00129A  EC20  F012         	call	_keypad_get_value	;wreg free
  1245   00129E  6E4B               	movwf	_value^0,c
  1246   0012A0                     
  1247                           ;application.c: 188:             if(keybad_value == '1'){
  1248   0012A0  0E31               	movlw	49
  1249   0012A2  182B               	xorwf	_keybad_value^0,w,c
  1250   0012A4  A4D8               	btfss	status,2,c
  1251   0012A6  EF57  F009         	goto	u4881
  1252   0012AA  EF59  F009         	goto	u4880
  1253   0012AE                     u4881:
  1254   0012AE  EF5B  F009         	goto	l76
  1255   0012B2                     u4880:
  1256   0012B2                     
  1257                           ;application.c: 189:                 retpad = 1;
  1258   0012B2  0E01               	movlw	1
  1259   0012B4  6E54               	movwf	_retpad^0,c
  1260   0012B6                     l76:
  1261                           
  1262                           ;application.c: 192:             if(retpad){
  1263   0012B6  5054               	movf	_retpad^0,w,c
  1264   0012B8  B4D8               	btfsc	status,2,c
  1265   0012BA  EF61  F009         	goto	u4891
  1266   0012BE  EF63  F009         	goto	u4890
  1267   0012C2                     u4891:
  1268   0012C2  EFB2  F00D         	goto	l4957
  1269   0012C6                     u4890:
  1270   0012C6                     
  1271                           ;application.c: 193:                 if(value == '1'){
  1272   0012C6  0E31               	movlw	49
  1273   0012C8  184B               	xorwf	_value^0,w,c
  1274   0012CA  A4D8               	btfss	status,2,c
  1275   0012CC  EF6A  F009         	goto	u4901
  1276   0012D0  EF6C  F009         	goto	u4900
  1277   0012D4                     u4901:
  1278   0012D4  EF6C  F008         	goto	l4635
  1279   0012D8                     u4900:
  1280   0012D8                     
  1281                           ;application.c: 194:                 ret = lcd_8bit_send_command(&lcd_obj , 0x01);
  1282   0012D8  0E19               	movlw	low _lcd_obj
  1283   0012DA  6E62               	movwf	lcd_8bit_send_command@lcd^0,c
  1284   0012DC  0E01               	movlw	1
  1285   0012DE  6E63               	movwf	lcd_8bit_send_command@command^0,c
  1286   0012E0  EC52  F015         	call	_lcd_8bit_send_command	;wreg free
  1287   0012E4  6E7B               	movwf	_ret^0,c
  1288   0012E6                     
  1289                           ;application.c: 195:                 ret = lcd_8bit_send_string_pos(&lcd_obj,1,1,"hours=
      +                          --");
  1290   0012E6  0E19               	movlw	low _lcd_obj
  1291   0012E8  6E6E               	movwf	lcd_8bit_send_string_pos@lcd^0,c
  1292   0012EA  0E01               	movlw	1
  1293   0012EC  6E6F               	movwf	lcd_8bit_send_string_pos@row^0,c
  1294   0012EE  0E01               	movlw	1
  1295   0012F0  6E70               	movwf	lcd_8bit_send_string_pos@col^0,c
  1296   0012F2  0E80               	movlw	low STR_2
  1297   0012F4  6E71               	movwf	lcd_8bit_send_string_pos@str^0,c
  1298   0012F6  EC51  F016         	call	_lcd_8bit_send_string_pos	;wreg free
  1299   0012FA  6E7B               	movwf	_ret^0,c
  1300   0012FC                     
  1301                           ;application.c: 196:                 first_digit = 'u';
  1302   0012FC  0E75               	movlw	117
  1303   0012FE  6E4D               	movwf	_first_digit^0,c
  1304   001300                     
  1305                           ;application.c: 197:                 keybad_value = 99;
  1306   001300  0E63               	movlw	99
  1307   001302  6E2B               	movwf	_keybad_value^0,c
  1308   001304                     
  1309                           ;application.c: 198:     _delay((unsigned long)((500)*(8000000UL/4000.0)));
  1310   001304  0E06               	movlw	6
  1311   001306  0100               	movlb	0	; () banked
  1312   001308  6FA7               	movwf	(??_main+1)& (0+255),b
  1313   00130A  0E13               	movlw	19
  1314   00130C  6FA6               	movwf	??_main& (0+255),b
  1315   00130E  0EAD               	movlw	173
  1316   001310                     u5817:
  1317   001310  2EE8               	decfsz	wreg,f,c
  1318   001312  D7FE               	bra	u5817
  1319   001314  2FA6               	decfsz	??_main& (0+255),f,b
  1320   001316  D7FC               	bra	u5817
  1321   001318  2FA7               	decfsz	(??_main+1)& (0+255),f,b
  1322   00131A  D7FA               	bra	u5817
  1323   00131C  D000               	nop2	
  1324   00131E                     l4705:
  1325                           
  1326                           ;application.c: 200:     {;application.c: 201:      first_digit=keypad_get_value(&keypad
      +                          _obj , &keybad_value);
  1327   00131E  0E23               	movlw	low _keypad_obj
  1328   001320  6E60               	movwf	keypad_get_value@keypad_obj^0,c
  1329   001322  0E2B               	movlw	low _keybad_value
  1330   001324  6E61               	movwf	keypad_get_value@value^0,c
  1331   001326  EC20  F012         	call	_keypad_get_value	;wreg free
  1332   00132A  6E4D               	movwf	_first_digit^0,c
  1333   00132C                     
  1334                           ;application.c: 202:      if((first_digit == '1') || (first_digit == '2') || (first_digi
      +                          t == '3') || (first_digit == '4') || (first_digit == '5')
  1335   00132C  0E31               	movlw	49
  1336   00132E  184D               	xorwf	_first_digit^0,w,c
  1337   001330  B4D8               	btfsc	status,2,c
  1338   001332  EF9D  F009         	goto	u4911
  1339   001336  EF9F  F009         	goto	u4910
  1340   00133A                     u4911:
  1341   00133A  EFF0  F009         	goto	l4727
  1342   00133E                     u4910:
  1343   00133E  0E32               	movlw	50
  1344   001340  184D               	xorwf	_first_digit^0,w,c
  1345   001342  B4D8               	btfsc	status,2,c
  1346   001344  EFA6  F009         	goto	u4921
  1347   001348  EFA8  F009         	goto	u4920
  1348   00134C                     u4921:
  1349   00134C  EFF0  F009         	goto	l4727
  1350   001350                     u4920:
  1351   001350  0E33               	movlw	51
  1352   001352  184D               	xorwf	_first_digit^0,w,c
  1353   001354  B4D8               	btfsc	status,2,c
  1354   001356  EFAF  F009         	goto	u4931
  1355   00135A  EFB1  F009         	goto	u4930
  1356   00135E                     u4931:
  1357   00135E  EFF0  F009         	goto	l4727
  1358   001362                     u4930:
  1359   001362  0E34               	movlw	52
  1360   001364  184D               	xorwf	_first_digit^0,w,c
  1361   001366  B4D8               	btfsc	status,2,c
  1362   001368  EFB8  F009         	goto	u4941
  1363   00136C  EFBA  F009         	goto	u4940
  1364   001370                     u4941:
  1365   001370  EFF0  F009         	goto	l4727
  1366   001374                     u4940:
  1367   001374  0E35               	movlw	53
  1368   001376  184D               	xorwf	_first_digit^0,w,c
  1369   001378  B4D8               	btfsc	status,2,c
  1370   00137A  EFC1  F009         	goto	u4951
  1371   00137E  EFC3  F009         	goto	u4950
  1372   001382                     u4951:
  1373   001382  EFF0  F009         	goto	l4727
  1374   001386                     u4950:
  1375   001386  0E36               	movlw	54
  1376   001388  184D               	xorwf	_first_digit^0,w,c
  1377   00138A  B4D8               	btfsc	status,2,c
  1378   00138C  EFCA  F009         	goto	u4961
  1379   001390  EFCC  F009         	goto	u4960
  1380   001394                     u4961:
  1381   001394  EFF0  F009         	goto	l4727
  1382   001398                     u4960:
  1383   001398  0E37               	movlw	55
  1384   00139A  184D               	xorwf	_first_digit^0,w,c
  1385   00139C  B4D8               	btfsc	status,2,c
  1386   00139E  EFD3  F009         	goto	u4971
  1387   0013A2  EFD5  F009         	goto	u4970
  1388   0013A6                     u4971:
  1389   0013A6  EFF0  F009         	goto	l4727
  1390   0013AA                     u4970:
  1391   0013AA  0E38               	movlw	56
  1392   0013AC  184D               	xorwf	_first_digit^0,w,c
  1393   0013AE  B4D8               	btfsc	status,2,c
  1394   0013B0  EFDC  F009         	goto	u4981
  1395   0013B4  EFDE  F009         	goto	u4980
  1396   0013B8                     u4981:
  1397   0013B8  EFF0  F009         	goto	l4727
  1398   0013BC                     u4980:
  1399   0013BC  0E39               	movlw	57
  1400   0013BE  184D               	xorwf	_first_digit^0,w,c
  1401   0013C0  B4D8               	btfsc	status,2,c
  1402   0013C2  EFE5  F009         	goto	u4991
  1403   0013C6  EFE7  F009         	goto	u4990
  1404   0013CA                     u4991:
  1405   0013CA  EFF0  F009         	goto	l4727
  1406   0013CE                     u4990:
  1407   0013CE  0E30               	movlw	48
  1408   0013D0  184D               	xorwf	_first_digit^0,w,c
  1409   0013D2  A4D8               	btfss	status,2,c
  1410   0013D4  EFEE  F009         	goto	u5001
  1411   0013D8  EFF0  F009         	goto	u5000
  1412   0013DC                     u5001:
  1413   0013DC  EFF4  F009         	goto	l4729
  1414   0013E0                     u5000:
  1415   0013E0                     l4727:
  1416                           
  1417                           ;application.c: 203:                             || (first_digit == '6') || (first_digit
      +                           == '7') || (first_digit == '8') || (first_digit == '9') || (first_digit == '0')){;appli
      +                          cation.c: 204:                         pressed = 1;
  1418   0013E0  0E01               	movlw	1
  1419   0013E2  6E4A               	movwf	_pressed^0,c
  1420                           
  1421                           ;application.c: 205:                     }
  1422   0013E4  EFF6  F009         	goto	l83
  1423   0013E8                     l4729:
  1424                           
  1425                           ;application.c: 207:                         pressed = 0;
  1426   0013E8  0E00               	movlw	0
  1427   0013EA  6E4A               	movwf	_pressed^0,c
  1428   0013EC                     l83:
  1429                           
  1430                           ;application.c: 209:     } while (!(pressed));
  1431   0013EC  504A               	movf	_pressed^0,w,c
  1432   0013EE  B4D8               	btfsc	status,2,c
  1433   0013F0  EFFC  F009         	goto	u5011
  1434   0013F4  EFFE  F009         	goto	u5010
  1435   0013F8                     u5011:
  1436   0013F8  EF8F  F009         	goto	l4705
  1437   0013FC                     u5010:
  1438   0013FC                     
  1439                           ;application.c: 210:     lcd_8bit_send_char_data_pos(&lcd_obj,1,7,first_digit);
  1440   0013FC  0E19               	movlw	low _lcd_obj
  1441   0013FE  6E6E               	movwf	lcd_8bit_send_char_data_pos@lcd^0,c
  1442   001400  0E01               	movlw	1
  1443   001402  6E6F               	movwf	lcd_8bit_send_char_data_pos@row^0,c
  1444   001404  0E07               	movlw	7
  1445   001406  6E70               	movwf	lcd_8bit_send_char_data_pos@col^0,c
  1446   001408  C04D  F071         	movff	_first_digit,lcd_8bit_send_char_data_pos@data
  1447   00140C  EC95  F016         	call	_lcd_8bit_send_char_data_pos	;wreg free
  1448   001410                     
  1449                           ;application.c: 211:                 pressed = 0;
  1450   001410  0E00               	movlw	0
  1451   001412  6E4A               	movwf	_pressed^0,c
  1452   001414                     
  1453                           ;application.c: 212:                 keybad_value = 99;
  1454   001414  0E63               	movlw	99
  1455   001416  6E2B               	movwf	_keybad_value^0,c
  1456   001418                     
  1457                           ;application.c: 213:     _delay((unsigned long)((300)*(8000000UL/4000.0)));
  1458   001418  0E04               	movlw	4
  1459   00141A  0100               	movlb	0	; () banked
  1460   00141C  6FA7               	movwf	(??_main+1)& (0+255),b
  1461   00141E  0E0C               	movlw	12
  1462   001420  6FA6               	movwf	??_main& (0+255),b
  1463   001422  0E33               	movlw	51
  1464   001424                     u5827:
  1465   001424  2EE8               	decfsz	wreg,f,c
  1466   001426  D7FE               	bra	u5827
  1467   001428  2FA6               	decfsz	??_main& (0+255),f,b
  1468   00142A  D7FC               	bra	u5827
  1469   00142C  2FA7               	decfsz	(??_main+1)& (0+255),f,b
  1470   00142E  D7FA               	bra	u5827
  1471   001430  D000               	nop2	
  1472   001432                     l4739:
  1473                           
  1474                           ;application.c: 215:     {;application.c: 217:      second_digit=keypad_get_value(&keypa
      +                          d_obj , &keybad_value);
  1475   001432  0E23               	movlw	low _keypad_obj
  1476   001434  6E60               	movwf	keypad_get_value@keypad_obj^0,c
  1477   001436  0E2B               	movlw	low _keybad_value
  1478   001438  6E61               	movwf	keypad_get_value@value^0,c
  1479   00143A  EC20  F012         	call	_keypad_get_value	;wreg free
  1480   00143E  6E4C               	movwf	_second_digit^0,c
  1481   001440                     
  1482                           ;application.c: 218:      if((second_digit == '1') || (second_digit == '2') || (second_d
      +                          igit == '3') || (second_digit == '4') || (second_digit == '5')
  1483   001440  0E31               	movlw	49
  1484   001442  184C               	xorwf	_second_digit^0,w,c
  1485   001444  B4D8               	btfsc	status,2,c
  1486   001446  EF27  F00A         	goto	u5021
  1487   00144A  EF29  F00A         	goto	u5020
  1488   00144E                     u5021:
  1489   00144E  EF7A  F00A         	goto	l4761
  1490   001452                     u5020:
  1491   001452  0E32               	movlw	50
  1492   001454  184C               	xorwf	_second_digit^0,w,c
  1493   001456  B4D8               	btfsc	status,2,c
  1494   001458  EF30  F00A         	goto	u5031
  1495   00145C  EF32  F00A         	goto	u5030
  1496   001460                     u5031:
  1497   001460  EF7A  F00A         	goto	l4761
  1498   001464                     u5030:
  1499   001464  0E33               	movlw	51
  1500   001466  184C               	xorwf	_second_digit^0,w,c
  1501   001468  B4D8               	btfsc	status,2,c
  1502   00146A  EF39  F00A         	goto	u5041
  1503   00146E  EF3B  F00A         	goto	u5040
  1504   001472                     u5041:
  1505   001472  EF7A  F00A         	goto	l4761
  1506   001476                     u5040:
  1507   001476  0E34               	movlw	52
  1508   001478  184C               	xorwf	_second_digit^0,w,c
  1509   00147A  B4D8               	btfsc	status,2,c
  1510   00147C  EF42  F00A         	goto	u5051
  1511   001480  EF44  F00A         	goto	u5050
  1512   001484                     u5051:
  1513   001484  EF7A  F00A         	goto	l4761
  1514   001488                     u5050:
  1515   001488  0E35               	movlw	53
  1516   00148A  184C               	xorwf	_second_digit^0,w,c
  1517   00148C  B4D8               	btfsc	status,2,c
  1518   00148E  EF4B  F00A         	goto	u5061
  1519   001492  EF4D  F00A         	goto	u5060
  1520   001496                     u5061:
  1521   001496  EF7A  F00A         	goto	l4761
  1522   00149A                     u5060:
  1523   00149A  0E36               	movlw	54
  1524   00149C  184C               	xorwf	_second_digit^0,w,c
  1525   00149E  B4D8               	btfsc	status,2,c
  1526   0014A0  EF54  F00A         	goto	u5071
  1527   0014A4  EF56  F00A         	goto	u5070
  1528   0014A8                     u5071:
  1529   0014A8  EF7A  F00A         	goto	l4761
  1530   0014AC                     u5070:
  1531   0014AC  0E37               	movlw	55
  1532   0014AE  184C               	xorwf	_second_digit^0,w,c
  1533   0014B0  B4D8               	btfsc	status,2,c
  1534   0014B2  EF5D  F00A         	goto	u5081
  1535   0014B6  EF5F  F00A         	goto	u5080
  1536   0014BA                     u5081:
  1537   0014BA  EF7A  F00A         	goto	l4761
  1538   0014BE                     u5080:
  1539   0014BE  0E38               	movlw	56
  1540   0014C0  184C               	xorwf	_second_digit^0,w,c
  1541   0014C2  B4D8               	btfsc	status,2,c
  1542   0014C4  EF66  F00A         	goto	u5091
  1543   0014C8  EF68  F00A         	goto	u5090
  1544   0014CC                     u5091:
  1545   0014CC  EF7A  F00A         	goto	l4761
  1546   0014D0                     u5090:
  1547   0014D0  0E39               	movlw	57
  1548   0014D2  184C               	xorwf	_second_digit^0,w,c
  1549   0014D4  B4D8               	btfsc	status,2,c
  1550   0014D6  EF6F  F00A         	goto	u5101
  1551   0014DA  EF71  F00A         	goto	u5100
  1552   0014DE                     u5101:
  1553   0014DE  EF7A  F00A         	goto	l4761
  1554   0014E2                     u5100:
  1555   0014E2  0E30               	movlw	48
  1556   0014E4  184C               	xorwf	_second_digit^0,w,c
  1557   0014E6  A4D8               	btfss	status,2,c
  1558   0014E8  EF78  F00A         	goto	u5111
  1559   0014EC  EF7A  F00A         	goto	u5110
  1560   0014F0                     u5111:
  1561   0014F0  EF7E  F00A         	goto	l4763
  1562   0014F4                     u5110:
  1563   0014F4                     l4761:
  1564                           
  1565                           ;application.c: 219:                             || (second_digit == '6') || (second_dig
      +                          it == '7') || (second_digit == '8') || (second_digit == '9') || (second_digit == '0')){;
      +                          application.c: 220:                         pressed = 1;
  1566   0014F4  0E01               	movlw	1
  1567   0014F6  6E4A               	movwf	_pressed^0,c
  1568                           
  1569                           ;application.c: 221:                     }
  1570   0014F8  EF80  F00A         	goto	l89
  1571   0014FC                     l4763:
  1572                           
  1573                           ;application.c: 223:                         pressed = 0;
  1574   0014FC  0E00               	movlw	0
  1575   0014FE  6E4A               	movwf	_pressed^0,c
  1576   001500                     l89:
  1577                           
  1578                           ;application.c: 225:     } while (!(pressed));
  1579   001500  504A               	movf	_pressed^0,w,c
  1580   001502  B4D8               	btfsc	status,2,c
  1581   001504  EF86  F00A         	goto	u5121
  1582   001508  EF88  F00A         	goto	u5120
  1583   00150C                     u5121:
  1584   00150C  EF19  F00A         	goto	l4739
  1585   001510                     u5120:
  1586   001510                     
  1587                           ;application.c: 226:     lcd_8bit_send_char_data_pos(&lcd_obj,1,8,second_digit);
  1588   001510  0E19               	movlw	low _lcd_obj
  1589   001512  6E6E               	movwf	lcd_8bit_send_char_data_pos@lcd^0,c
  1590   001514  0E01               	movlw	1
  1591   001516  6E6F               	movwf	lcd_8bit_send_char_data_pos@row^0,c
  1592   001518  0E08               	movlw	8
  1593   00151A  6E70               	movwf	lcd_8bit_send_char_data_pos@col^0,c
  1594   00151C  C04C  F071         	movff	_second_digit,lcd_8bit_send_char_data_pos@data
  1595   001520  EC95  F016         	call	_lcd_8bit_send_char_data_pos	;wreg free
  1596   001524                     
  1597                           ;application.c: 227:     _delay((unsigned long)((300)*(8000000UL/4000.0)));
  1598   001524  0E04               	movlw	4
  1599   001526  0100               	movlb	0	; () banked
  1600   001528  6FA7               	movwf	(??_main+1)& (0+255),b
  1601   00152A  0E0C               	movlw	12
  1602   00152C  6FA6               	movwf	??_main& (0+255),b
  1603   00152E  0E33               	movlw	51
  1604   001530                     u5837:
  1605   001530  2EE8               	decfsz	wreg,f,c
  1606   001532  D7FE               	bra	u5837
  1607   001534  2FA6               	decfsz	??_main& (0+255),f,b
  1608   001536  D7FC               	bra	u5837
  1609   001538  2FA7               	decfsz	(??_main+1)& (0+255),f,b
  1610   00153A  D7FA               	bra	u5837
  1611   00153C  D000               	nop2	
  1612   00153E                     
  1613                           ;application.c: 230:                 hours=(second_digit-48)+10*(first_digit-48);
  1614   00153E  504D               	movf	_first_digit^0,w,c
  1615   001540  0D0A               	mullw	10
  1616   001542  50F3               	movf	243,w,c
  1617   001544  244C               	addwf	_second_digit^0,w,c
  1618   001546  0FF0               	addlw	240
  1619   001548  6E4F               	movwf	_hours^0,c
  1620   00154A                     
  1621                           ;application.c: 231:                 ret = lcd_8bit_send_command(&lcd_obj , 0x01);
  1622   00154A  0E19               	movlw	low _lcd_obj
  1623   00154C  6E62               	movwf	lcd_8bit_send_command@lcd^0,c
  1624   00154E  0E01               	movlw	1
  1625   001550  6E63               	movwf	lcd_8bit_send_command@command^0,c
  1626   001552  EC52  F015         	call	_lcd_8bit_send_command	;wreg free
  1627   001556  6E7B               	movwf	_ret^0,c
  1628   001558                     
  1629                           ;application.c: 232:                 ret = lcd_8bit_send_string_pos(&lcd_obj,1,1,"minute
      +                          s=--");
  1630   001558  0E19               	movlw	low _lcd_obj
  1631   00155A  6E6E               	movwf	lcd_8bit_send_string_pos@lcd^0,c
  1632   00155C  0E01               	movlw	1
  1633   00155E  6E6F               	movwf	lcd_8bit_send_string_pos@row^0,c
  1634   001560  0E01               	movlw	1
  1635   001562  6E70               	movwf	lcd_8bit_send_string_pos@col^0,c
  1636   001564  0E75               	movlw	low STR_3
  1637   001566  6E71               	movwf	lcd_8bit_send_string_pos@str^0,c
  1638   001568  EC51  F016         	call	_lcd_8bit_send_string_pos	;wreg free
  1639   00156C  6E7B               	movwf	_ret^0,c
  1640   00156E                     
  1641                           ;application.c: 234:                  first_digit = 'u';
  1642   00156E  0E75               	movlw	117
  1643   001570  6E4D               	movwf	_first_digit^0,c
  1644   001572                     
  1645                           ;application.c: 235:                 keybad_value = 99;
  1646   001572  0E63               	movlw	99
  1647   001574  6E2B               	movwf	_keybad_value^0,c
  1648   001576                     
  1649                           ;application.c: 236:     _delay((unsigned long)((500)*(8000000UL/4000.0)));
  1650   001576  0E06               	movlw	6
  1651   001578  0100               	movlb	0	; () banked
  1652   00157A  6FA7               	movwf	(??_main+1)& (0+255),b
  1653   00157C  0E13               	movlw	19
  1654   00157E  6FA6               	movwf	??_main& (0+255),b
  1655   001580  0EAD               	movlw	173
  1656   001582                     u5847:
  1657   001582  2EE8               	decfsz	wreg,f,c
  1658   001584  D7FE               	bra	u5847
  1659   001586  2FA6               	decfsz	??_main& (0+255),f,b
  1660   001588  D7FC               	bra	u5847
  1661   00158A  2FA7               	decfsz	(??_main+1)& (0+255),f,b
  1662   00158C  D7FA               	bra	u5847
  1663   00158E  D000               	nop2	
  1664   001590                     l4781:
  1665                           
  1666                           ;application.c: 238:     {;application.c: 239:      first_digit=keypad_get_value(&keypad
      +                          _obj , &keybad_value);
  1667   001590  0E23               	movlw	low _keypad_obj
  1668   001592  6E60               	movwf	keypad_get_value@keypad_obj^0,c
  1669   001594  0E2B               	movlw	low _keybad_value
  1670   001596  6E61               	movwf	keypad_get_value@value^0,c
  1671   001598  EC20  F012         	call	_keypad_get_value	;wreg free
  1672   00159C  6E4D               	movwf	_first_digit^0,c
  1673   00159E                     
  1674                           ;application.c: 240:      if((first_digit == '1') || (first_digit == '2') || (first_digi
      +                          t == '3') || (first_digit == '4') || (first_digit == '5')
  1675   00159E  0E31               	movlw	49
  1676   0015A0  184D               	xorwf	_first_digit^0,w,c
  1677   0015A2  B4D8               	btfsc	status,2,c
  1678   0015A4  EFD6  F00A         	goto	u5131
  1679   0015A8  EFD8  F00A         	goto	u5130
  1680   0015AC                     u5131:
  1681   0015AC  EF29  F00B         	goto	l4803
  1682   0015B0                     u5130:
  1683   0015B0  0E32               	movlw	50
  1684   0015B2  184D               	xorwf	_first_digit^0,w,c
  1685   0015B4  B4D8               	btfsc	status,2,c
  1686   0015B6  EFDF  F00A         	goto	u5141
  1687   0015BA  EFE1  F00A         	goto	u5140
  1688   0015BE                     u5141:
  1689   0015BE  EF29  F00B         	goto	l4803
  1690   0015C2                     u5140:
  1691   0015C2  0E33               	movlw	51
  1692   0015C4  184D               	xorwf	_first_digit^0,w,c
  1693   0015C6  B4D8               	btfsc	status,2,c
  1694   0015C8  EFE8  F00A         	goto	u5151
  1695   0015CC  EFEA  F00A         	goto	u5150
  1696   0015D0                     u5151:
  1697   0015D0  EF29  F00B         	goto	l4803
  1698   0015D4                     u5150:
  1699   0015D4  0E34               	movlw	52
  1700   0015D6  184D               	xorwf	_first_digit^0,w,c
  1701   0015D8  B4D8               	btfsc	status,2,c
  1702   0015DA  EFF1  F00A         	goto	u5161
  1703   0015DE  EFF3  F00A         	goto	u5160
  1704   0015E2                     u5161:
  1705   0015E2  EF29  F00B         	goto	l4803
  1706   0015E6                     u5160:
  1707   0015E6  0E35               	movlw	53
  1708   0015E8  184D               	xorwf	_first_digit^0,w,c
  1709   0015EA  B4D8               	btfsc	status,2,c
  1710   0015EC  EFFA  F00A         	goto	u5171
  1711   0015F0  EFFC  F00A         	goto	u5170
  1712   0015F4                     u5171:
  1713   0015F4  EF29  F00B         	goto	l4803
  1714   0015F8                     u5170:
  1715   0015F8  0E36               	movlw	54
  1716   0015FA  184D               	xorwf	_first_digit^0,w,c
  1717   0015FC  B4D8               	btfsc	status,2,c
  1718   0015FE  EF03  F00B         	goto	u5181
  1719   001602  EF05  F00B         	goto	u5180
  1720   001606                     u5181:
  1721   001606  EF29  F00B         	goto	l4803
  1722   00160A                     u5180:
  1723   00160A  0E37               	movlw	55
  1724   00160C  184D               	xorwf	_first_digit^0,w,c
  1725   00160E  B4D8               	btfsc	status,2,c
  1726   001610  EF0C  F00B         	goto	u5191
  1727   001614  EF0E  F00B         	goto	u5190
  1728   001618                     u5191:
  1729   001618  EF29  F00B         	goto	l4803
  1730   00161C                     u5190:
  1731   00161C  0E38               	movlw	56
  1732   00161E  184D               	xorwf	_first_digit^0,w,c
  1733   001620  B4D8               	btfsc	status,2,c
  1734   001622  EF15  F00B         	goto	u5201
  1735   001626  EF17  F00B         	goto	u5200
  1736   00162A                     u5201:
  1737   00162A  EF29  F00B         	goto	l4803
  1738   00162E                     u5200:
  1739   00162E  0E39               	movlw	57
  1740   001630  184D               	xorwf	_first_digit^0,w,c
  1741   001632  B4D8               	btfsc	status,2,c
  1742   001634  EF1E  F00B         	goto	u5211
  1743   001638  EF20  F00B         	goto	u5210
  1744   00163C                     u5211:
  1745   00163C  EF29  F00B         	goto	l4803
  1746   001640                     u5210:
  1747   001640  0E30               	movlw	48
  1748   001642  184D               	xorwf	_first_digit^0,w,c
  1749   001644  A4D8               	btfss	status,2,c
  1750   001646  EF27  F00B         	goto	u5221
  1751   00164A  EF29  F00B         	goto	u5220
  1752   00164E                     u5221:
  1753   00164E  EF2D  F00B         	goto	l4805
  1754   001652                     u5220:
  1755   001652                     l4803:
  1756                           
  1757                           ;application.c: 241:                             || (first_digit == '6') || (first_digit
      +                           == '7') || (first_digit == '8') || (first_digit == '9') || (first_digit == '0')){;appli
      +                          cation.c: 242:                         pressed = 1;
  1758   001652  0E01               	movlw	1
  1759   001654  6E4A               	movwf	_pressed^0,c
  1760                           
  1761                           ;application.c: 243:                     }
  1762   001656  EF2F  F00B         	goto	l95
  1763   00165A                     l4805:
  1764                           
  1765                           ;application.c: 245:                         pressed = 0;
  1766   00165A  0E00               	movlw	0
  1767   00165C  6E4A               	movwf	_pressed^0,c
  1768   00165E                     l95:
  1769                           
  1770                           ;application.c: 247:     } while (!(pressed));
  1771   00165E  504A               	movf	_pressed^0,w,c
  1772   001660  B4D8               	btfsc	status,2,c
  1773   001662  EF35  F00B         	goto	u5231
  1774   001666  EF37  F00B         	goto	u5230
  1775   00166A                     u5231:
  1776   00166A  EFC8  F00A         	goto	l4781
  1777   00166E                     u5230:
  1778   00166E                     
  1779                           ;application.c: 248:     lcd_8bit_send_char_data_pos(&lcd_obj,1,9,first_digit);
  1780   00166E  0E19               	movlw	low _lcd_obj
  1781   001670  6E6E               	movwf	lcd_8bit_send_char_data_pos@lcd^0,c
  1782   001672  0E01               	movlw	1
  1783   001674  6E6F               	movwf	lcd_8bit_send_char_data_pos@row^0,c
  1784   001676  0E09               	movlw	9
  1785   001678  6E70               	movwf	lcd_8bit_send_char_data_pos@col^0,c
  1786   00167A  C04D  F071         	movff	_first_digit,lcd_8bit_send_char_data_pos@data
  1787   00167E  EC95  F016         	call	_lcd_8bit_send_char_data_pos	;wreg free
  1788   001682                     
  1789                           ;application.c: 249:                 pressed = 0;
  1790   001682  0E00               	movlw	0
  1791   001684  6E4A               	movwf	_pressed^0,c
  1792   001686                     
  1793                           ;application.c: 250:                 keybad_value = 99;
  1794   001686  0E63               	movlw	99
  1795   001688  6E2B               	movwf	_keybad_value^0,c
  1796   00168A                     
  1797                           ;application.c: 251:     _delay((unsigned long)((300)*(8000000UL/4000.0)));
  1798   00168A  0E04               	movlw	4
  1799   00168C  0100               	movlb	0	; () banked
  1800   00168E  6FA7               	movwf	(??_main+1)& (0+255),b
  1801   001690  0E0C               	movlw	12
  1802   001692  6FA6               	movwf	??_main& (0+255),b
  1803   001694  0E33               	movlw	51
  1804   001696                     u5857:
  1805   001696  2EE8               	decfsz	wreg,f,c
  1806   001698  D7FE               	bra	u5857
  1807   00169A  2FA6               	decfsz	??_main& (0+255),f,b
  1808   00169C  D7FC               	bra	u5857
  1809   00169E  2FA7               	decfsz	(??_main+1)& (0+255),f,b
  1810   0016A0  D7FA               	bra	u5857
  1811   0016A2  D000               	nop2	
  1812   0016A4                     l4815:
  1813                           
  1814                           ;application.c: 253:     {;application.c: 255:      second_digit=keypad_get_value(&keypa
      +                          d_obj , &keybad_value);
  1815   0016A4  0E23               	movlw	low _keypad_obj
  1816   0016A6  6E60               	movwf	keypad_get_value@keypad_obj^0,c
  1817   0016A8  0E2B               	movlw	low _keybad_value
  1818   0016AA  6E61               	movwf	keypad_get_value@value^0,c
  1819   0016AC  EC20  F012         	call	_keypad_get_value	;wreg free
  1820   0016B0  6E4C               	movwf	_second_digit^0,c
  1821   0016B2                     
  1822                           ;application.c: 256:      if((second_digit == '1') || (second_digit == '2') || (second_d
      +                          igit == '3') || (second_digit == '4') || (second_digit == '5')
  1823   0016B2  0E31               	movlw	49
  1824   0016B4  184C               	xorwf	_second_digit^0,w,c
  1825   0016B6  B4D8               	btfsc	status,2,c
  1826   0016B8  EF60  F00B         	goto	u5241
  1827   0016BC  EF62  F00B         	goto	u5240
  1828   0016C0                     u5241:
  1829   0016C0  EFB3  F00B         	goto	l4837
  1830   0016C4                     u5240:
  1831   0016C4  0E32               	movlw	50
  1832   0016C6  184C               	xorwf	_second_digit^0,w,c
  1833   0016C8  B4D8               	btfsc	status,2,c
  1834   0016CA  EF69  F00B         	goto	u5251
  1835   0016CE  EF6B  F00B         	goto	u5250
  1836   0016D2                     u5251:
  1837   0016D2  EFB3  F00B         	goto	l4837
  1838   0016D6                     u5250:
  1839   0016D6  0E33               	movlw	51
  1840   0016D8  184C               	xorwf	_second_digit^0,w,c
  1841   0016DA  B4D8               	btfsc	status,2,c
  1842   0016DC  EF72  F00B         	goto	u5261
  1843   0016E0  EF74  F00B         	goto	u5260
  1844   0016E4                     u5261:
  1845   0016E4  EFB3  F00B         	goto	l4837
  1846   0016E8                     u5260:
  1847   0016E8  0E34               	movlw	52
  1848   0016EA  184C               	xorwf	_second_digit^0,w,c
  1849   0016EC  B4D8               	btfsc	status,2,c
  1850   0016EE  EF7B  F00B         	goto	u5271
  1851   0016F2  EF7D  F00B         	goto	u5270
  1852   0016F6                     u5271:
  1853   0016F6  EFB3  F00B         	goto	l4837
  1854   0016FA                     u5270:
  1855   0016FA  0E35               	movlw	53
  1856   0016FC  184C               	xorwf	_second_digit^0,w,c
  1857   0016FE  B4D8               	btfsc	status,2,c
  1858   001700  EF84  F00B         	goto	u5281
  1859   001704  EF86  F00B         	goto	u5280
  1860   001708                     u5281:
  1861   001708  EFB3  F00B         	goto	l4837
  1862   00170C                     u5280:
  1863   00170C  0E36               	movlw	54
  1864   00170E  184C               	xorwf	_second_digit^0,w,c
  1865   001710  B4D8               	btfsc	status,2,c
  1866   001712  EF8D  F00B         	goto	u5291
  1867   001716  EF8F  F00B         	goto	u5290
  1868   00171A                     u5291:
  1869   00171A  EFB3  F00B         	goto	l4837
  1870   00171E                     u5290:
  1871   00171E  0E37               	movlw	55
  1872   001720  184C               	xorwf	_second_digit^0,w,c
  1873   001722  B4D8               	btfsc	status,2,c
  1874   001724  EF96  F00B         	goto	u5301
  1875   001728  EF98  F00B         	goto	u5300
  1876   00172C                     u5301:
  1877   00172C  EFB3  F00B         	goto	l4837
  1878   001730                     u5300:
  1879   001730  0E38               	movlw	56
  1880   001732  184C               	xorwf	_second_digit^0,w,c
  1881   001734  B4D8               	btfsc	status,2,c
  1882   001736  EF9F  F00B         	goto	u5311
  1883   00173A  EFA1  F00B         	goto	u5310
  1884   00173E                     u5311:
  1885   00173E  EFB3  F00B         	goto	l4837
  1886   001742                     u5310:
  1887   001742  0E39               	movlw	57
  1888   001744  184C               	xorwf	_second_digit^0,w,c
  1889   001746  B4D8               	btfsc	status,2,c
  1890   001748  EFA8  F00B         	goto	u5321
  1891   00174C  EFAA  F00B         	goto	u5320
  1892   001750                     u5321:
  1893   001750  EFB3  F00B         	goto	l4837
  1894   001754                     u5320:
  1895   001754  0E30               	movlw	48
  1896   001756  184C               	xorwf	_second_digit^0,w,c
  1897   001758  A4D8               	btfss	status,2,c
  1898   00175A  EFB1  F00B         	goto	u5331
  1899   00175E  EFB3  F00B         	goto	u5330
  1900   001762                     u5331:
  1901   001762  EFB7  F00B         	goto	l4839
  1902   001766                     u5330:
  1903   001766                     l4837:
  1904                           
  1905                           ;application.c: 257:                             || (second_digit == '6') || (second_dig
      +                          it == '7') || (second_digit == '8') || (second_digit == '9') || (second_digit == '0')){;
      +                          application.c: 258:                         pressed = 1;
  1906   001766  0E01               	movlw	1
  1907   001768  6E4A               	movwf	_pressed^0,c
  1908                           
  1909                           ;application.c: 259:                     }
  1910   00176A  EFB9  F00B         	goto	l101
  1911   00176E                     l4839:
  1912                           
  1913                           ;application.c: 261:                         pressed = 0;
  1914   00176E  0E00               	movlw	0
  1915   001770  6E4A               	movwf	_pressed^0,c
  1916   001772                     l101:
  1917                           
  1918                           ;application.c: 263:     } while (!(pressed));
  1919   001772  504A               	movf	_pressed^0,w,c
  1920   001774  B4D8               	btfsc	status,2,c
  1921   001776  EFBF  F00B         	goto	u5341
  1922   00177A  EFC1  F00B         	goto	u5340
  1923   00177E                     u5341:
  1924   00177E  EF52  F00B         	goto	l4815
  1925   001782                     u5340:
  1926   001782                     
  1927                           ;application.c: 264:     lcd_8bit_send_char_data_pos(&lcd_obj,1,10,second_digit);
  1928   001782  0E19               	movlw	low _lcd_obj
  1929   001784  6E6E               	movwf	lcd_8bit_send_char_data_pos@lcd^0,c
  1930   001786  0E01               	movlw	1
  1931   001788  6E6F               	movwf	lcd_8bit_send_char_data_pos@row^0,c
  1932   00178A  0E0A               	movlw	10
  1933   00178C  6E70               	movwf	lcd_8bit_send_char_data_pos@col^0,c
  1934   00178E  C04C  F071         	movff	_second_digit,lcd_8bit_send_char_data_pos@data
  1935   001792  EC95  F016         	call	_lcd_8bit_send_char_data_pos	;wreg free
  1936   001796                     
  1937                           ;application.c: 265:     _delay((unsigned long)((300)*(8000000UL/4000.0)));
  1938   001796  0E04               	movlw	4
  1939   001798  0100               	movlb	0	; () banked
  1940   00179A  6FA7               	movwf	(??_main+1)& (0+255),b
  1941   00179C  0E0C               	movlw	12
  1942   00179E  6FA6               	movwf	??_main& (0+255),b
  1943   0017A0  0E33               	movlw	51
  1944   0017A2                     u5867:
  1945   0017A2  2EE8               	decfsz	wreg,f,c
  1946   0017A4  D7FE               	bra	u5867
  1947   0017A6  2FA6               	decfsz	??_main& (0+255),f,b
  1948   0017A8  D7FC               	bra	u5867
  1949   0017AA  2FA7               	decfsz	(??_main+1)& (0+255),f,b
  1950   0017AC  D7FA               	bra	u5867
  1951   0017AE  D000               	nop2	
  1952   0017B0                     
  1953                           ;application.c: 266:     minutes=(second_digit-48)+10*(first_digit-48);
  1954   0017B0  504D               	movf	_first_digit^0,w,c
  1955   0017B2  0D0A               	mullw	10
  1956   0017B4  50F3               	movf	243,w,c
  1957   0017B6  244C               	addwf	_second_digit^0,w,c
  1958   0017B8  0FF0               	addlw	240
  1959   0017BA  6E51               	movwf	_minutes^0,c
  1960   0017BC                     
  1961                           ;application.c: 268:                 ret = lcd_8bit_send_command(&lcd_obj , 0x01);
  1962   0017BC  0E19               	movlw	low _lcd_obj
  1963   0017BE  6E62               	movwf	lcd_8bit_send_command@lcd^0,c
  1964   0017C0  0E01               	movlw	1
  1965   0017C2  6E63               	movwf	lcd_8bit_send_command@command^0,c
  1966   0017C4  EC52  F015         	call	_lcd_8bit_send_command	;wreg free
  1967   0017C8  6E7B               	movwf	_ret^0,c
  1968   0017CA                     
  1969                           ;application.c: 269:                 ret = lcd_8bit_send_string_pos(&lcd_obj,1,1,"second
      +                          s=--");
  1970   0017CA  0E19               	movlw	low _lcd_obj
  1971   0017CC  6E6E               	movwf	lcd_8bit_send_string_pos@lcd^0,c
  1972   0017CE  0E01               	movlw	1
  1973   0017D0  6E6F               	movwf	lcd_8bit_send_string_pos@row^0,c
  1974   0017D2  0E01               	movlw	1
  1975   0017D4  6E70               	movwf	lcd_8bit_send_string_pos@col^0,c
  1976   0017D6  0E6A               	movlw	low STR_4
  1977   0017D8  6E71               	movwf	lcd_8bit_send_string_pos@str^0,c
  1978   0017DA  EC51  F016         	call	_lcd_8bit_send_string_pos	;wreg free
  1979   0017DE  6E7B               	movwf	_ret^0,c
  1980   0017E0                     
  1981                           ;application.c: 271:                  first_digit = 'u';
  1982   0017E0  0E75               	movlw	117
  1983   0017E2  6E4D               	movwf	_first_digit^0,c
  1984   0017E4                     
  1985                           ;application.c: 272:                 keybad_value = 99;
  1986   0017E4  0E63               	movlw	99
  1987   0017E6  6E2B               	movwf	_keybad_value^0,c
  1988   0017E8                     
  1989                           ;application.c: 273:     _delay((unsigned long)((500)*(8000000UL/4000.0)));
  1990   0017E8  0E06               	movlw	6
  1991   0017EA  0100               	movlb	0	; () banked
  1992   0017EC  6FA7               	movwf	(??_main+1)& (0+255),b
  1993   0017EE  0E13               	movlw	19
  1994   0017F0  6FA6               	movwf	??_main& (0+255),b
  1995   0017F2  0EAD               	movlw	173
  1996   0017F4                     u5877:
  1997   0017F4  2EE8               	decfsz	wreg,f,c
  1998   0017F6  D7FE               	bra	u5877
  1999   0017F8  2FA6               	decfsz	??_main& (0+255),f,b
  2000   0017FA  D7FC               	bra	u5877
  2001   0017FC  2FA7               	decfsz	(??_main+1)& (0+255),f,b
  2002   0017FE  D7FA               	bra	u5877
  2003   001800  D000               	nop2	
  2004   001802                     l4857:
  2005                           
  2006                           ;application.c: 275:     {;application.c: 276:      first_digit=keypad_get_value(&keypad
      +                          _obj , &keybad_value);
  2007   001802  0E23               	movlw	low _keypad_obj
  2008   001804  6E60               	movwf	keypad_get_value@keypad_obj^0,c
  2009   001806  0E2B               	movlw	low _keybad_value
  2010   001808  6E61               	movwf	keypad_get_value@value^0,c
  2011   00180A  EC20  F012         	call	_keypad_get_value	;wreg free
  2012   00180E  6E4D               	movwf	_first_digit^0,c
  2013   001810                     
  2014                           ;application.c: 277:      if((first_digit == '1') || (first_digit == '2') || (first_digi
      +                          t == '3') || (first_digit == '4') || (first_digit == '5')
  2015   001810  0E31               	movlw	49
  2016   001812  184D               	xorwf	_first_digit^0,w,c
  2017   001814  B4D8               	btfsc	status,2,c
  2018   001816  EF0F  F00C         	goto	u5351
  2019   00181A  EF11  F00C         	goto	u5350
  2020   00181E                     u5351:
  2021   00181E  EF62  F00C         	goto	l4879
  2022   001822                     u5350:
  2023   001822  0E32               	movlw	50
  2024   001824  184D               	xorwf	_first_digit^0,w,c
  2025   001826  B4D8               	btfsc	status,2,c
  2026   001828  EF18  F00C         	goto	u5361
  2027   00182C  EF1A  F00C         	goto	u5360
  2028   001830                     u5361:
  2029   001830  EF62  F00C         	goto	l4879
  2030   001834                     u5360:
  2031   001834  0E33               	movlw	51
  2032   001836  184D               	xorwf	_first_digit^0,w,c
  2033   001838  B4D8               	btfsc	status,2,c
  2034   00183A  EF21  F00C         	goto	u5371
  2035   00183E  EF23  F00C         	goto	u5370
  2036   001842                     u5371:
  2037   001842  EF62  F00C         	goto	l4879
  2038   001846                     u5370:
  2039   001846  0E34               	movlw	52
  2040   001848  184D               	xorwf	_first_digit^0,w,c
  2041   00184A  B4D8               	btfsc	status,2,c
  2042   00184C  EF2A  F00C         	goto	u5381
  2043   001850  EF2C  F00C         	goto	u5380
  2044   001854                     u5381:
  2045   001854  EF62  F00C         	goto	l4879
  2046   001858                     u5380:
  2047   001858  0E35               	movlw	53
  2048   00185A  184D               	xorwf	_first_digit^0,w,c
  2049   00185C  B4D8               	btfsc	status,2,c
  2050   00185E  EF33  F00C         	goto	u5391
  2051   001862  EF35  F00C         	goto	u5390
  2052   001866                     u5391:
  2053   001866  EF62  F00C         	goto	l4879
  2054   00186A                     u5390:
  2055   00186A  0E36               	movlw	54
  2056   00186C  184D               	xorwf	_first_digit^0,w,c
  2057   00186E  B4D8               	btfsc	status,2,c
  2058   001870  EF3C  F00C         	goto	u5401
  2059   001874  EF3E  F00C         	goto	u5400
  2060   001878                     u5401:
  2061   001878  EF62  F00C         	goto	l4879
  2062   00187C                     u5400:
  2063   00187C  0E37               	movlw	55
  2064   00187E  184D               	xorwf	_first_digit^0,w,c
  2065   001880  B4D8               	btfsc	status,2,c
  2066   001882  EF45  F00C         	goto	u5411
  2067   001886  EF47  F00C         	goto	u5410
  2068   00188A                     u5411:
  2069   00188A  EF62  F00C         	goto	l4879
  2070   00188E                     u5410:
  2071   00188E  0E38               	movlw	56
  2072   001890  184D               	xorwf	_first_digit^0,w,c
  2073   001892  B4D8               	btfsc	status,2,c
  2074   001894  EF4E  F00C         	goto	u5421
  2075   001898  EF50  F00C         	goto	u5420
  2076   00189C                     u5421:
  2077   00189C  EF62  F00C         	goto	l4879
  2078   0018A0                     u5420:
  2079   0018A0  0E39               	movlw	57
  2080   0018A2  184D               	xorwf	_first_digit^0,w,c
  2081   0018A4  B4D8               	btfsc	status,2,c
  2082   0018A6  EF57  F00C         	goto	u5431
  2083   0018AA  EF59  F00C         	goto	u5430
  2084   0018AE                     u5431:
  2085   0018AE  EF62  F00C         	goto	l4879
  2086   0018B2                     u5430:
  2087   0018B2  0E30               	movlw	48
  2088   0018B4  184D               	xorwf	_first_digit^0,w,c
  2089   0018B6  A4D8               	btfss	status,2,c
  2090   0018B8  EF60  F00C         	goto	u5441
  2091   0018BC  EF62  F00C         	goto	u5440
  2092   0018C0                     u5441:
  2093   0018C0  EF66  F00C         	goto	l4881
  2094   0018C4                     u5440:
  2095   0018C4                     l4879:
  2096                           
  2097                           ;application.c: 278:                             || (first_digit == '6') || (first_digit
      +                           == '7') || (first_digit == '8') || (first_digit == '9') || (first_digit == '0')){;appli
      +                          cation.c: 279:                         pressed = 1;
  2098   0018C4  0E01               	movlw	1
  2099   0018C6  6E4A               	movwf	_pressed^0,c
  2100                           
  2101                           ;application.c: 280:                     }
  2102   0018C8  EF68  F00C         	goto	l107
  2103   0018CC                     l4881:
  2104                           
  2105                           ;application.c: 282:                         pressed = 0;
  2106   0018CC  0E00               	movlw	0
  2107   0018CE  6E4A               	movwf	_pressed^0,c
  2108   0018D0                     l107:
  2109                           
  2110                           ;application.c: 284:     } while (!(pressed));
  2111   0018D0  504A               	movf	_pressed^0,w,c
  2112   0018D2  B4D8               	btfsc	status,2,c
  2113   0018D4  EF6E  F00C         	goto	u5451
  2114   0018D8  EF70  F00C         	goto	u5450
  2115   0018DC                     u5451:
  2116   0018DC  EF01  F00C         	goto	l4857
  2117   0018E0                     u5450:
  2118   0018E0                     
  2119                           ;application.c: 285:     lcd_8bit_send_char_data_pos(&lcd_obj,1,9,first_digit);
  2120   0018E0  0E19               	movlw	low _lcd_obj
  2121   0018E2  6E6E               	movwf	lcd_8bit_send_char_data_pos@lcd^0,c
  2122   0018E4  0E01               	movlw	1
  2123   0018E6  6E6F               	movwf	lcd_8bit_send_char_data_pos@row^0,c
  2124   0018E8  0E09               	movlw	9
  2125   0018EA  6E70               	movwf	lcd_8bit_send_char_data_pos@col^0,c
  2126   0018EC  C04D  F071         	movff	_first_digit,lcd_8bit_send_char_data_pos@data
  2127   0018F0  EC95  F016         	call	_lcd_8bit_send_char_data_pos	;wreg free
  2128   0018F4                     
  2129                           ;application.c: 286:                 pressed = 0;
  2130   0018F4  0E00               	movlw	0
  2131   0018F6  6E4A               	movwf	_pressed^0,c
  2132   0018F8                     
  2133                           ;application.c: 287:                 keybad_value = 99;
  2134   0018F8  0E63               	movlw	99
  2135   0018FA  6E2B               	movwf	_keybad_value^0,c
  2136   0018FC                     
  2137                           ;application.c: 288:     _delay((unsigned long)((300)*(8000000UL/4000.0)));
  2138   0018FC  0E04               	movlw	4
  2139   0018FE  0100               	movlb	0	; () banked
  2140   001900  6FA7               	movwf	(??_main+1)& (0+255),b
  2141   001902  0E0C               	movlw	12
  2142   001904  6FA6               	movwf	??_main& (0+255),b
  2143   001906  0E33               	movlw	51
  2144   001908                     u5887:
  2145   001908  2EE8               	decfsz	wreg,f,c
  2146   00190A  D7FE               	bra	u5887
  2147   00190C  2FA6               	decfsz	??_main& (0+255),f,b
  2148   00190E  D7FC               	bra	u5887
  2149   001910  2FA7               	decfsz	(??_main+1)& (0+255),f,b
  2150   001912  D7FA               	bra	u5887
  2151   001914  D000               	nop2	
  2152   001916                     l4891:
  2153                           
  2154                           ;application.c: 290:     {;application.c: 292:      second_digit=keypad_get_value(&keypa
      +                          d_obj , &keybad_value);
  2155   001916  0E23               	movlw	low _keypad_obj
  2156   001918  6E60               	movwf	keypad_get_value@keypad_obj^0,c
  2157   00191A  0E2B               	movlw	low _keybad_value
  2158   00191C  6E61               	movwf	keypad_get_value@value^0,c
  2159   00191E  EC20  F012         	call	_keypad_get_value	;wreg free
  2160   001922  6E4C               	movwf	_second_digit^0,c
  2161   001924                     
  2162                           ;application.c: 293:      if((second_digit == '1') || (second_digit == '2') || (second_d
      +                          igit == '3') || (second_digit == '4') || (second_digit == '5')
  2163   001924  0E31               	movlw	49
  2164   001926  184C               	xorwf	_second_digit^0,w,c
  2165   001928  B4D8               	btfsc	status,2,c
  2166   00192A  EF99  F00C         	goto	u5461
  2167   00192E  EF9B  F00C         	goto	u5460
  2168   001932                     u5461:
  2169   001932  EFEC  F00C         	goto	l4913
  2170   001936                     u5460:
  2171   001936  0E32               	movlw	50
  2172   001938  184C               	xorwf	_second_digit^0,w,c
  2173   00193A  B4D8               	btfsc	status,2,c
  2174   00193C  EFA2  F00C         	goto	u5471
  2175   001940  EFA4  F00C         	goto	u5470
  2176   001944                     u5471:
  2177   001944  EFEC  F00C         	goto	l4913
  2178   001948                     u5470:
  2179   001948  0E33               	movlw	51
  2180   00194A  184C               	xorwf	_second_digit^0,w,c
  2181   00194C  B4D8               	btfsc	status,2,c
  2182   00194E  EFAB  F00C         	goto	u5481
  2183   001952  EFAD  F00C         	goto	u5480
  2184   001956                     u5481:
  2185   001956  EFEC  F00C         	goto	l4913
  2186   00195A                     u5480:
  2187   00195A  0E34               	movlw	52
  2188   00195C  184C               	xorwf	_second_digit^0,w,c
  2189   00195E  B4D8               	btfsc	status,2,c
  2190   001960  EFB4  F00C         	goto	u5491
  2191   001964  EFB6  F00C         	goto	u5490
  2192   001968                     u5491:
  2193   001968  EFEC  F00C         	goto	l4913
  2194   00196C                     u5490:
  2195   00196C  0E35               	movlw	53
  2196   00196E  184C               	xorwf	_second_digit^0,w,c
  2197   001970  B4D8               	btfsc	status,2,c
  2198   001972  EFBD  F00C         	goto	u5501
  2199   001976  EFBF  F00C         	goto	u5500
  2200   00197A                     u5501:
  2201   00197A  EFEC  F00C         	goto	l4913
  2202   00197E                     u5500:
  2203   00197E  0E36               	movlw	54
  2204   001980  184C               	xorwf	_second_digit^0,w,c
  2205   001982  B4D8               	btfsc	status,2,c
  2206   001984  EFC6  F00C         	goto	u5511
  2207   001988  EFC8  F00C         	goto	u5510
  2208   00198C                     u5511:
  2209   00198C  EFEC  F00C         	goto	l4913
  2210   001990                     u5510:
  2211   001990  0E37               	movlw	55
  2212   001992  184C               	xorwf	_second_digit^0,w,c
  2213   001994  B4D8               	btfsc	status,2,c
  2214   001996  EFCF  F00C         	goto	u5521
  2215   00199A  EFD1  F00C         	goto	u5520
  2216   00199E                     u5521:
  2217   00199E  EFEC  F00C         	goto	l4913
  2218   0019A2                     u5520:
  2219   0019A2  0E38               	movlw	56
  2220   0019A4  184C               	xorwf	_second_digit^0,w,c
  2221   0019A6  B4D8               	btfsc	status,2,c
  2222   0019A8  EFD8  F00C         	goto	u5531
  2223   0019AC  EFDA  F00C         	goto	u5530
  2224   0019B0                     u5531:
  2225   0019B0  EFEC  F00C         	goto	l4913
  2226   0019B4                     u5530:
  2227   0019B4  0E39               	movlw	57
  2228   0019B6  184C               	xorwf	_second_digit^0,w,c
  2229   0019B8  B4D8               	btfsc	status,2,c
  2230   0019BA  EFE1  F00C         	goto	u5541
  2231   0019BE  EFE3  F00C         	goto	u5540
  2232   0019C2                     u5541:
  2233   0019C2  EFEC  F00C         	goto	l4913
  2234   0019C6                     u5540:
  2235   0019C6  0E30               	movlw	48
  2236   0019C8  184C               	xorwf	_second_digit^0,w,c
  2237   0019CA  A4D8               	btfss	status,2,c
  2238   0019CC  EFEA  F00C         	goto	u5551
  2239   0019D0  EFEC  F00C         	goto	u5550
  2240   0019D4                     u5551:
  2241   0019D4  EFF0  F00C         	goto	l4915
  2242   0019D8                     u5550:
  2243   0019D8                     l4913:
  2244                           
  2245                           ;application.c: 294:                             || (second_digit == '6') || (second_dig
      +                          it == '7') || (second_digit == '8') || (second_digit == '9') || (second_digit == '0')){;
      +                          application.c: 295:                         pressed = 1;
  2246   0019D8  0E01               	movlw	1
  2247   0019DA  6E4A               	movwf	_pressed^0,c
  2248                           
  2249                           ;application.c: 296:                     }
  2250   0019DC  EFF2  F00C         	goto	l113
  2251   0019E0                     l4915:
  2252                           
  2253                           ;application.c: 298:                         pressed = 0;
  2254   0019E0  0E00               	movlw	0
  2255   0019E2  6E4A               	movwf	_pressed^0,c
  2256   0019E4                     l113:
  2257                           
  2258                           ;application.c: 300:     } while (!(pressed));
  2259   0019E4  504A               	movf	_pressed^0,w,c
  2260   0019E6  B4D8               	btfsc	status,2,c
  2261   0019E8  EFF8  F00C         	goto	u5561
  2262   0019EC  EFFA  F00C         	goto	u5560
  2263   0019F0                     u5561:
  2264   0019F0  EF8B  F00C         	goto	l4891
  2265   0019F4                     u5560:
  2266   0019F4                     
  2267                           ;application.c: 301:     lcd_8bit_send_char_data_pos(&lcd_obj,1,10,second_digit);
  2268   0019F4  0E19               	movlw	low _lcd_obj
  2269   0019F6  6E6E               	movwf	lcd_8bit_send_char_data_pos@lcd^0,c
  2270   0019F8  0E01               	movlw	1
  2271   0019FA  6E6F               	movwf	lcd_8bit_send_char_data_pos@row^0,c
  2272   0019FC  0E0A               	movlw	10
  2273   0019FE  6E70               	movwf	lcd_8bit_send_char_data_pos@col^0,c
  2274   001A00  C04C  F071         	movff	_second_digit,lcd_8bit_send_char_data_pos@data
  2275   001A04  EC95  F016         	call	_lcd_8bit_send_char_data_pos	;wreg free
  2276   001A08                     
  2277                           ;application.c: 302:     _delay((unsigned long)((300)*(8000000UL/4000.0)));
  2278   001A08  0E04               	movlw	4
  2279   001A0A  0100               	movlb	0	; () banked
  2280   001A0C  6FA7               	movwf	(??_main+1)& (0+255),b
  2281   001A0E  0E0C               	movlw	12
  2282   001A10  6FA6               	movwf	??_main& (0+255),b
  2283   001A12  0E33               	movlw	51
  2284   001A14                     u5897:
  2285   001A14  2EE8               	decfsz	wreg,f,c
  2286   001A16  D7FE               	bra	u5897
  2287   001A18  2FA6               	decfsz	??_main& (0+255),f,b
  2288   001A1A  D7FC               	bra	u5897
  2289   001A1C  2FA7               	decfsz	(??_main+1)& (0+255),f,b
  2290   001A1E  D7FA               	bra	u5897
  2291   001A20  D000               	nop2	
  2292   001A22                     
  2293                           ;application.c: 303:     seconds=(second_digit-48)+10*(first_digit-48);
  2294   001A22  504D               	movf	_first_digit^0,w,c
  2295   001A24  0D0A               	mullw	10
  2296   001A26  50F3               	movf	243,w,c
  2297   001A28  244C               	addwf	_second_digit^0,w,c
  2298   001A2A  0FF0               	addlw	240
  2299   001A2C  6E53               	movwf	_seconds^0,c
  2300   001A2E                     
  2301                           ;application.c: 304:                 ret = lcd_8bit_send_command(&lcd_obj , 0x01);
  2302   001A2E  0E19               	movlw	low _lcd_obj
  2303   001A30  6E62               	movwf	lcd_8bit_send_command@lcd^0,c
  2304   001A32  0E01               	movlw	1
  2305   001A34  6E63               	movwf	lcd_8bit_send_command@command^0,c
  2306   001A36  EC52  F015         	call	_lcd_8bit_send_command	;wreg free
  2307   001A3A  6E7B               	movwf	_ret^0,c
  2308   001A3C                     
  2309                           ;application.c: 307:                 if((hours > 23) || (minutes > 59) || (seconds > 59)
      +                          ){
  2310   001A3C  0E18               	movlw	24
  2311   001A3E  604F               	cpfslt	_hours^0,c
  2312   001A40  EF24  F00D         	goto	u5571
  2313   001A44  EF26  F00D         	goto	u5570
  2314   001A48                     u5571:
  2315   001A48  EF36  F00D         	goto	l4931
  2316   001A4C                     u5570:
  2317   001A4C  0E3C               	movlw	60
  2318   001A4E  6051               	cpfslt	_minutes^0,c
  2319   001A50  EF2C  F00D         	goto	u5581
  2320   001A54  EF2E  F00D         	goto	u5580
  2321   001A58                     u5581:
  2322   001A58  EF36  F00D         	goto	l4931
  2323   001A5C                     u5580:
  2324   001A5C  0E3B               	movlw	59
  2325   001A5E  6453               	cpfsgt	_seconds^0,c
  2326   001A60  EF34  F00D         	goto	u5591
  2327   001A64  EF36  F00D         	goto	u5590
  2328   001A68                     u5591:
  2329   001A68  EF68  F00D         	goto	l4945
  2330   001A6C                     u5590:
  2331   001A6C                     l4931:
  2332                           
  2333                           ;application.c: 309:                 ret = lcd_8bit_send_string_pos(&lcd_obj,1,1,"Invali
      +                          d Number");
  2334   001A6C  0E19               	movlw	low _lcd_obj
  2335   001A6E  6E6E               	movwf	lcd_8bit_send_string_pos@lcd^0,c
  2336   001A70  0E01               	movlw	1
  2337   001A72  6E6F               	movwf	lcd_8bit_send_string_pos@row^0,c
  2338   001A74  0E01               	movlw	1
  2339   001A76  6E70               	movwf	lcd_8bit_send_string_pos@col^0,c
  2340   001A78  0E4E               	movlw	low STR_5
  2341   001A7A  6E71               	movwf	lcd_8bit_send_string_pos@str^0,c
  2342   001A7C  EC51  F016         	call	_lcd_8bit_send_string_pos	;wreg free
  2343   001A80  6E7B               	movwf	_ret^0,c
  2344   001A82                     
  2345                           ;application.c: 310:                 _delay((unsigned long)((1000)*(8000000UL/4000.0)));
  2346   001A82  0E0B               	movlw	11
  2347   001A84  0100               	movlb	0	; () banked
  2348   001A86  6FA7               	movwf	(??_main+1)& (0+255),b
  2349   001A88  0E26               	movlw	38
  2350   001A8A  6FA6               	movwf	??_main& (0+255),b
  2351   001A8C  0E5D               	movlw	93
  2352   001A8E                     u5907:
  2353   001A8E  2EE8               	decfsz	wreg,f,c
  2354   001A90  D7FE               	bra	u5907
  2355   001A92  2FA6               	decfsz	??_main& (0+255),f,b
  2356   001A94  D7FC               	bra	u5907
  2357   001A96  2FA7               	decfsz	(??_main+1)& (0+255),f,b
  2358   001A98  D7FA               	bra	u5907
  2359   001A9A  D000               	nop2	
  2360   001A9C                     
  2361                           ;application.c: 311:                 ret = lcd_8bit_send_command(&lcd_obj , 0x01);
  2362   001A9C  0E19               	movlw	low _lcd_obj
  2363   001A9E  6E62               	movwf	lcd_8bit_send_command@lcd^0,c
  2364   001AA0  0E01               	movlw	1
  2365   001AA2  6E63               	movwf	lcd_8bit_send_command@command^0,c
  2366   001AA4  EC52  F015         	call	_lcd_8bit_send_command	;wreg free
  2367   001AA8  6E7B               	movwf	_ret^0,c
  2368   001AAA                     
  2369                           ;application.c: 312:                 ret = lcd_8bit_send_string_pos(&lcd_obj,1,1,"Press 
      +                          1 To Set Clock");
  2370   001AAA  0E19               	movlw	low _lcd_obj
  2371   001AAC  6E6E               	movwf	lcd_8bit_send_string_pos@lcd^0,c
  2372   001AAE  0E01               	movlw	1
  2373   001AB0  6E6F               	movwf	lcd_8bit_send_string_pos@row^0,c
  2374   001AB2  0E01               	movlw	1
  2375   001AB4  6E70               	movwf	lcd_8bit_send_string_pos@col^0,c
  2376   001AB6  0E39               	movlw	low STR_1
  2377   001AB8  6E71               	movwf	lcd_8bit_send_string_pos@str^0,c
  2378   001ABA  EC51  F016         	call	_lcd_8bit_send_string_pos	;wreg free
  2379   001ABE  6E7B               	movwf	_ret^0,c
  2380   001AC0                     
  2381                           ;application.c: 313:                 hours = temp_hours;
  2382   001AC0  C04E  F04F         	movff	_temp_hours,_hours
  2383   001AC4                     
  2384                           ;application.c: 314:                 minutes = temp_minutes;
  2385   001AC4  C050  F051         	movff	_temp_minutes,_minutes
  2386   001AC8                     
  2387                           ;application.c: 315:                 seconds = temp_seconeds;
  2388   001AC8  C052  F053         	movff	_temp_seconeds,_seconds
  2389                           
  2390                           ;application.c: 317:                 }
  2391   001ACC  EF6C  F008         	goto	l4635
  2392   001AD0                     l4945:
  2393                           
  2394                           ;application.c: 319:      ret = lcd_8bit_send_string_pos(&lcd_obj,1,1,"Your Clock Has Be
      +                          en Set");
  2395   001AD0  0E19               	movlw	low _lcd_obj
  2396   001AD2  6E6E               	movwf	lcd_8bit_send_string_pos@lcd^0,c
  2397   001AD4  0E01               	movlw	1
  2398   001AD6  6E6F               	movwf	lcd_8bit_send_string_pos@row^0,c
  2399   001AD8  0E01               	movlw	1
  2400   001ADA  6E70               	movwf	lcd_8bit_send_string_pos@col^0,c
  2401   001ADC  0E21               	movlw	low STR_7
  2402   001ADE  6E71               	movwf	lcd_8bit_send_string_pos@str^0,c
  2403   001AE0  EC51  F016         	call	_lcd_8bit_send_string_pos	;wreg free
  2404   001AE4  6E7B               	movwf	_ret^0,c
  2405                           
  2406                           ;application.c: 320:                 ret = lcd_8bit_send_custom_char(&lcd_obj,1,25,smile
      +                          ,0);
  2407   001AE6  0E19               	movlw	low _lcd_obj
  2408   001AE8  6E73               	movwf	lcd_8bit_send_custom_char@lcd^0,c
  2409   001AEA  0E01               	movlw	1
  2410   001AEC  6E74               	movwf	lcd_8bit_send_custom_char@row^0,c
  2411   001AEE  0E19               	movlw	25
  2412   001AF0  6E75               	movwf	lcd_8bit_send_custom_char@col^0,c
  2413   001AF2  0E19               	movlw	low _smile
  2414   001AF4  6E76               	movwf	lcd_8bit_send_custom_char@_char^0,c
  2415   001AF6  0E00               	movlw	0
  2416   001AF8  6E77               	movwf	lcd_8bit_send_custom_char@mem_pos^0,c
  2417   001AFA  ECD9  F014         	call	_lcd_8bit_send_custom_char	;wreg free
  2418   001AFE  6E7B               	movwf	_ret^0,c
  2419                           
  2420                           ;application.c: 321:                 ret = lcd_8bit_send_custom_char(&lcd_obj,1,26,heart
      +                          ,1);
  2421   001B00  0E19               	movlw	low _lcd_obj
  2422   001B02  6E73               	movwf	lcd_8bit_send_custom_char@lcd^0,c
  2423   001B04  0E01               	movlw	1
  2424   001B06  6E74               	movwf	lcd_8bit_send_custom_char@row^0,c
  2425   001B08  0E1A               	movlw	26
  2426   001B0A  6E75               	movwf	lcd_8bit_send_custom_char@col^0,c
  2427   001B0C  0E11               	movlw	low _heart
  2428   001B0E  6E76               	movwf	lcd_8bit_send_custom_char@_char^0,c
  2429   001B10  0E01               	movlw	1
  2430   001B12  6E77               	movwf	lcd_8bit_send_custom_char@mem_pos^0,c
  2431   001B14  ECD9  F014         	call	_lcd_8bit_send_custom_char	;wreg free
  2432   001B18  6E7B               	movwf	_ret^0,c
  2433   001B1A                     
  2434                           ;application.c: 322:                 _delay((unsigned long)((1000)*(8000000UL/4000.0)));
  2435   001B1A  0E0B               	movlw	11
  2436   001B1C  0100               	movlb	0	; () banked
  2437   001B1E  6FA7               	movwf	(??_main+1)& (0+255),b
  2438   001B20  0E26               	movlw	38
  2439   001B22  6FA6               	movwf	??_main& (0+255),b
  2440   001B24  0E5D               	movlw	93
  2441   001B26                     u5917:
  2442   001B26  2EE8               	decfsz	wreg,f,c
  2443   001B28  D7FE               	bra	u5917
  2444   001B2A  2FA6               	decfsz	??_main& (0+255),f,b
  2445   001B2C  D7FC               	bra	u5917
  2446   001B2E  2FA7               	decfsz	(??_main+1)& (0+255),f,b
  2447   001B30  D7FA               	bra	u5917
  2448   001B32  D000               	nop2	
  2449   001B34                     
  2450                           ;application.c: 323:                 ret = lcd_8bit_send_command(&lcd_obj , 0x01);
  2451   001B34  0E19               	movlw	low _lcd_obj
  2452   001B36  6E62               	movwf	lcd_8bit_send_command@lcd^0,c
  2453   001B38  0E01               	movlw	1
  2454   001B3A  6E63               	movwf	lcd_8bit_send_command@command^0,c
  2455   001B3C  EC52  F015         	call	_lcd_8bit_send_command	;wreg free
  2456   001B40  6E7B               	movwf	_ret^0,c
  2457   001B42                     
  2458                           ;application.c: 324:                 ret = lcd_8bit_send_string_pos(&lcd_obj,1,1,"Press 
      +                          1 To Set Clock");
  2459   001B42  0E19               	movlw	low _lcd_obj
  2460   001B44  6E6E               	movwf	lcd_8bit_send_string_pos@lcd^0,c
  2461   001B46  0E01               	movlw	1
  2462   001B48  6E6F               	movwf	lcd_8bit_send_string_pos@row^0,c
  2463   001B4A  0E01               	movlw	1
  2464   001B4C  6E70               	movwf	lcd_8bit_send_string_pos@col^0,c
  2465   001B4E  0E39               	movlw	low STR_1
  2466   001B50  6E71               	movwf	lcd_8bit_send_string_pos@str^0,c
  2467   001B52  EC51  F016         	call	_lcd_8bit_send_string_pos	;wreg free
  2468   001B56  6E7B               	movwf	_ret^0,c
  2469   001B58                     
  2470                           ;application.c: 325:                 retpad = 0;
  2471   001B58  0E00               	movlw	0
  2472   001B5A  6E54               	movwf	_retpad^0,c
  2473   001B5C                     
  2474                           ;application.c: 326:                 keybad_value = 'u';
  2475   001B5C  0E75               	movlw	117
  2476   001B5E  6E2B               	movwf	_keybad_value^0,c
  2477   001B60  EF6C  F008         	goto	l4635
  2478   001B64                     l4957:
  2479                           
  2480                           ;application.c: 333:                 if((keybad_value == '2') || (keybad_value == '3') |
      +                          | (keybad_value == '4') || (keybad_value == '5') || (keybad_value == '6')
  2481   001B64  0E32               	movlw	50
  2482   001B66  182B               	xorwf	_keybad_value^0,w,c
  2483   001B68  B4D8               	btfsc	status,2,c
  2484   001B6A  EFB9  F00D         	goto	u5601
  2485   001B6E  EFBB  F00D         	goto	u5600
  2486   001B72                     u5601:
  2487   001B72  EF39  F00E         	goto	l4987
  2488   001B76                     u5600:
  2489   001B76  0E33               	movlw	51
  2490   001B78  182B               	xorwf	_keybad_value^0,w,c
  2491   001B7A  B4D8               	btfsc	status,2,c
  2492   001B7C  EFC2  F00D         	goto	u5611
  2493   001B80  EFC4  F00D         	goto	u5610
  2494   001B84                     u5611:
  2495   001B84  EF39  F00E         	goto	l4987
  2496   001B88                     u5610:
  2497   001B88  0E34               	movlw	52
  2498   001B8A  182B               	xorwf	_keybad_value^0,w,c
  2499   001B8C  B4D8               	btfsc	status,2,c
  2500   001B8E  EFCB  F00D         	goto	u5621
  2501   001B92  EFCD  F00D         	goto	u5620
  2502   001B96                     u5621:
  2503   001B96  EF39  F00E         	goto	l4987
  2504   001B9A                     u5620:
  2505   001B9A  0E35               	movlw	53
  2506   001B9C  182B               	xorwf	_keybad_value^0,w,c
  2507   001B9E  B4D8               	btfsc	status,2,c
  2508   001BA0  EFD4  F00D         	goto	u5631
  2509   001BA4  EFD6  F00D         	goto	u5630
  2510   001BA8                     u5631:
  2511   001BA8  EF39  F00E         	goto	l4987
  2512   001BAC                     u5630:
  2513   001BAC  0E36               	movlw	54
  2514   001BAE  182B               	xorwf	_keybad_value^0,w,c
  2515   001BB0  B4D8               	btfsc	status,2,c
  2516   001BB2  EFDD  F00D         	goto	u5641
  2517   001BB6  EFDF  F00D         	goto	u5640
  2518   001BBA                     u5641:
  2519   001BBA  EF39  F00E         	goto	l4987
  2520   001BBE                     u5640:
  2521   001BBE  0E37               	movlw	55
  2522   001BC0  182B               	xorwf	_keybad_value^0,w,c
  2523   001BC2  B4D8               	btfsc	status,2,c
  2524   001BC4  EFE6  F00D         	goto	u5651
  2525   001BC8  EFE8  F00D         	goto	u5650
  2526   001BCC                     u5651:
  2527   001BCC  EF39  F00E         	goto	l4987
  2528   001BD0                     u5650:
  2529   001BD0  0E38               	movlw	56
  2530   001BD2  182B               	xorwf	_keybad_value^0,w,c
  2531   001BD4  B4D8               	btfsc	status,2,c
  2532   001BD6  EFEF  F00D         	goto	u5661
  2533   001BDA  EFF1  F00D         	goto	u5660
  2534   001BDE                     u5661:
  2535   001BDE  EF39  F00E         	goto	l4987
  2536   001BE2                     u5660:
  2537   001BE2  0E39               	movlw	57
  2538   001BE4  182B               	xorwf	_keybad_value^0,w,c
  2539   001BE6  B4D8               	btfsc	status,2,c
  2540   001BE8  EFF8  F00D         	goto	u5671
  2541   001BEC  EFFA  F00D         	goto	u5670
  2542   001BF0                     u5671:
  2543   001BF0  EF39  F00E         	goto	l4987
  2544   001BF4                     u5670:
  2545   001BF4  0E30               	movlw	48
  2546   001BF6  182B               	xorwf	_keybad_value^0,w,c
  2547   001BF8  B4D8               	btfsc	status,2,c
  2548   001BFA  EF01  F00E         	goto	u5681
  2549   001BFE  EF03  F00E         	goto	u5680
  2550   001C02                     u5681:
  2551   001C02  EF39  F00E         	goto	l4987
  2552   001C06                     u5680:
  2553   001C06  0E23               	movlw	35
  2554   001C08  182B               	xorwf	_keybad_value^0,w,c
  2555   001C0A  B4D8               	btfsc	status,2,c
  2556   001C0C  EF0A  F00E         	goto	u5691
  2557   001C10  EF0C  F00E         	goto	u5690
  2558   001C14                     u5691:
  2559   001C14  EF39  F00E         	goto	l4987
  2560   001C18                     u5690:
  2561   001C18  0E3D               	movlw	61
  2562   001C1A  182B               	xorwf	_keybad_value^0,w,c
  2563   001C1C  B4D8               	btfsc	status,2,c
  2564   001C1E  EF13  F00E         	goto	u5701
  2565   001C22  EF15  F00E         	goto	u5700
  2566   001C26                     u5701:
  2567   001C26  EF39  F00E         	goto	l4987
  2568   001C2A                     u5700:
  2569   001C2A  0E2B               	movlw	43
  2570   001C2C  182B               	xorwf	_keybad_value^0,w,c
  2571   001C2E  B4D8               	btfsc	status,2,c
  2572   001C30  EF1C  F00E         	goto	u5711
  2573   001C34  EF1E  F00E         	goto	u5710
  2574   001C38                     u5711:
  2575   001C38  EF39  F00E         	goto	l4987
  2576   001C3C                     u5710:
  2577   001C3C  0E2D               	movlw	45
  2578   001C3E  182B               	xorwf	_keybad_value^0,w,c
  2579   001C40  B4D8               	btfsc	status,2,c
  2580   001C42  EF25  F00E         	goto	u5721
  2581   001C46  EF27  F00E         	goto	u5720
  2582   001C4A                     u5721:
  2583   001C4A  EF39  F00E         	goto	l4987
  2584   001C4E                     u5720:
  2585   001C4E  0E2A               	movlw	42
  2586   001C50  182B               	xorwf	_keybad_value^0,w,c
  2587   001C52  B4D8               	btfsc	status,2,c
  2588   001C54  EF2E  F00E         	goto	u5731
  2589   001C58  EF30  F00E         	goto	u5730
  2590   001C5C                     u5731:
  2591   001C5C  EF39  F00E         	goto	l4987
  2592   001C60                     u5730:
  2593   001C60  0E2F               	movlw	47
  2594   001C62  182B               	xorwf	_keybad_value^0,w,c
  2595   001C64  A4D8               	btfss	status,2,c
  2596   001C66  EF37  F00E         	goto	u5741
  2597   001C6A  EF39  F00E         	goto	u5740
  2598   001C6E                     u5741:
  2599   001C6E  EF6E  F00E         	goto	l119
  2600   001C72                     u5740:
  2601   001C72                     l4987:
  2602                           
  2603                           ;application.c: 335:                         || (keybad_value == '=') || (keybad_value =
      +                          = '+') || (keybad_value == '-') || (keybad_value == '*') || (keybad_value == '/')){;appl
      +                          ication.c: 336:                 ret = lcd_8bit_send_command(&lcd_obj , 0x01);
  2604   001C72  0E19               	movlw	low _lcd_obj
  2605   001C74  6E62               	movwf	lcd_8bit_send_command@lcd^0,c
  2606   001C76  0E01               	movlw	1
  2607   001C78  6E63               	movwf	lcd_8bit_send_command@command^0,c
  2608   001C7A  EC52  F015         	call	_lcd_8bit_send_command	;wreg free
  2609   001C7E  6E7B               	movwf	_ret^0,c
  2610   001C80                     
  2611                           ;application.c: 337:                 ret = lcd_8bit_send_string_pos(&lcd_obj,1,1,"Wrong 
      +                          Choice");
  2612   001C80  0E19               	movlw	low _lcd_obj
  2613   001C82  6E6E               	movwf	lcd_8bit_send_string_pos@lcd^0,c
  2614   001C84  0E01               	movlw	1
  2615   001C86  6E6F               	movwf	lcd_8bit_send_string_pos@row^0,c
  2616   001C88  0E01               	movlw	1
  2617   001C8A  6E70               	movwf	lcd_8bit_send_string_pos@col^0,c
  2618   001C8C  0E5D               	movlw	low STR_9
  2619   001C8E  6E71               	movwf	lcd_8bit_send_string_pos@str^0,c
  2620   001C90  EC51  F016         	call	_lcd_8bit_send_string_pos	;wreg free
  2621   001C94  6E7B               	movwf	_ret^0,c
  2622   001C96                     
  2623                           ;application.c: 338:                 _delay((unsigned long)((1000)*(8000000UL/4000.0)));
  2624   001C96  0E0B               	movlw	11
  2625   001C98  0100               	movlb	0	; () banked
  2626   001C9A  6FA7               	movwf	(??_main+1)& (0+255),b
  2627   001C9C  0E26               	movlw	38
  2628   001C9E  6FA6               	movwf	??_main& (0+255),b
  2629   001CA0  0E5D               	movlw	93
  2630   001CA2                     u5927:
  2631   001CA2  2EE8               	decfsz	wreg,f,c
  2632   001CA4  D7FE               	bra	u5927
  2633   001CA6  2FA6               	decfsz	??_main& (0+255),f,b
  2634   001CA8  D7FC               	bra	u5927
  2635   001CAA  2FA7               	decfsz	(??_main+1)& (0+255),f,b
  2636   001CAC  D7FA               	bra	u5927
  2637   001CAE  D000               	nop2	
  2638   001CB0                     
  2639                           ;application.c: 339:                 keybad_value = 99;
  2640   001CB0  0E63               	movlw	99
  2641   001CB2  6E2B               	movwf	_keybad_value^0,c
  2642   001CB4                     
  2643                           ;application.c: 340:                 ret = lcd_8bit_send_command(&lcd_obj , 0x01);
  2644   001CB4  0E19               	movlw	low _lcd_obj
  2645   001CB6  6E62               	movwf	lcd_8bit_send_command@lcd^0,c
  2646   001CB8  0E01               	movlw	1
  2647   001CBA  6E63               	movwf	lcd_8bit_send_command@command^0,c
  2648   001CBC  EC52  F015         	call	_lcd_8bit_send_command	;wreg free
  2649   001CC0  6E7B               	movwf	_ret^0,c
  2650   001CC2                     
  2651                           ;application.c: 341:                 ret = lcd_8bit_send_string_pos(&lcd_obj,1,1,"Press 
      +                          1 To Set Clock");
  2652   001CC2  0E19               	movlw	low _lcd_obj
  2653   001CC4  6E6E               	movwf	lcd_8bit_send_string_pos@lcd^0,c
  2654   001CC6  0E01               	movlw	1
  2655   001CC8  6E6F               	movwf	lcd_8bit_send_string_pos@row^0,c
  2656   001CCA  0E01               	movlw	1
  2657   001CCC  6E70               	movwf	lcd_8bit_send_string_pos@col^0,c
  2658   001CCE  0E39               	movlw	low STR_1
  2659   001CD0  6E71               	movwf	lcd_8bit_send_string_pos@str^0,c
  2660   001CD2  EC51  F016         	call	_lcd_8bit_send_string_pos	;wreg free
  2661   001CD6  6E7B               	movwf	_ret^0,c
  2662                           
  2663                           ;application.c: 342:                 }
  2664   001CD8  EF6C  F008         	goto	l4635
  2665   001CDC                     l119:
  2666   001CDC  EF6C  F008         	goto	l4635
  2667   001CE0  EF07  F000         	goto	start
  2668   001CE4                     __end_of_main:
  2669                           	callstack 0
  2670                           
  2671 ;; *************** function _seven_segment_init *****************
  2672 ;; Defined at:
  2673 ;;		line 13 in file "ECU_layer/SEVEN_SEG/ecu_seven_seg.c"
  2674 ;; Parameters:    Size  Location     Type
  2675 ;;  seg             1   11[COMRAM] PTR const struct .
  2676 ;;		 -> seven_seg_obj(5), 
  2677 ;; Auto vars:     Size  Location     Type
  2678 ;;  ret             1   12[COMRAM] unsigned char 
  2679 ;; Return value:  Size  Location     Type
  2680 ;;                  1    wreg      unsigned char 
  2681 ;; Registers used:
  2682 ;;		wreg, fsr2l, fsr2h, status,2, status,0, prodl, prodh, cstack
  2683 ;; Tracked objects:
  2684 ;;		On entry : 0/0
  2685 ;;		On exit  : 0/0
  2686 ;;		Unchanged: 0/0
  2687 ;; Data sizes:     COMRAM   BANK0   BANK1   BANK2   BANK3   BANK4   BANK5   BANK6   BANK7   BANK8   BANK9  BANK10  BANK1
      +1  BANK12  BANK13  BANK14  BANK15
  2688 ;;      Params:         1       0       0       0       0       0       0       0       0       0       0       0       
      +0       0       0       0       0
  2689 ;;      Locals:         1       0       0       0       0       0       0       0       0       0       0       0       
      +0       0       0       0       0
  2690 ;;      Temps:          0       0       0       0       0       0       0       0       0       0       0       0       
      +0       0       0       0       0
  2691 ;;      Totals:         2       0       0       0       0       0       0       0       0       0       0       0       
      +0       0       0       0       0
  2692 ;;Total ram usage:        2 bytes
  2693 ;; Hardware stack levels used: 1
  2694 ;; Hardware stack levels required when called: 4
  2695 ;; This function calls:
  2696 ;;		_gpio_pin_direction_init
  2697 ;;		_gpio_pin_write_logic
  2698 ;; This function is called by:
  2699 ;;		_main
  2700 ;; This function uses a non-reentrant model
  2701 ;;
  2702                           
  2703                           	psect	text1
  2704   0025E2                     __ptext1:
  2705                           	callstack 0
  2706   0025E2                     _seven_segment_init:
  2707                           	callstack 26
  2708   0025E2                     
  2709                           ;ECU_layer/SEVEN_SEG/ecu_seven_seg.c: 15: if(((void*)0) == seg){
  2710   0025E2  5060               	movf	seven_segment_init@seg^0,w,c
  2711   0025E4  A4D8               	btfss	status,2,c
  2712   0025E6  EFF7  F012         	goto	u3301
  2713   0025EA  EFF9  F012         	goto	u3300
  2714   0025EE                     u3301:
  2715   0025EE  EFFD  F012         	goto	l3711
  2716   0025F2                     u3300:
  2717   0025F2                     
  2718                           ;ECU_layer/SEVEN_SEG/ecu_seven_seg.c: 16:     ret = (Std_ReturnType)0x00;
  2719   0025F2  0E00               	movlw	0
  2720   0025F4  6E61               	movwf	seven_segment_init@ret^0,c
  2721                           
  2722                           ;ECU_layer/SEVEN_SEG/ecu_seven_seg.c: 17: }
  2723   0025F6  EF4B  F013         	goto	l3713
  2724   0025FA                     l3711:
  2725                           
  2726                           ;ECU_layer/SEVEN_SEG/ecu_seven_seg.c: 19:     ret = gpio_pin_direction_init(&(seg->segme
      +                          nt_pin[0]));
  2727   0025FA  C060  F058         	movff	seven_segment_init@seg,gpio_pin_direction_init@_pin_config
  2728   0025FE  EC05  F011         	call	_gpio_pin_direction_init	;wreg free
  2729   002602  6E61               	movwf	seven_segment_init@ret^0,c
  2730                           
  2731                           ;ECU_layer/SEVEN_SEG/ecu_seven_seg.c: 20:     ret = gpio_pin_write_logic(&(seg->segment_
      +                          pin[0]), seg->segment_pin[0].logic);
  2732   002604  C060  F058         	movff	seven_segment_init@seg,gpio_pin_write_logic@_pin_config
  2733   002608  5060               	movf	seven_segment_init@seg^0,w,c
  2734   00260A  6ED9               	movwf	fsr2l,c
  2735   00260C  6ADA               	clrf	fsr2h,c
  2736   00260E  0E00               	movlw	0
  2737   002610  BEDF               	btfsc	indf2,7,c
  2738   002612  0E01               	movlw	1
  2739   002614  6E59               	movwf	gpio_pin_write_logic@logic^0,c
  2740   002616  EC98  F011         	call	_gpio_pin_write_logic	;wreg free
  2741   00261A  6E61               	movwf	seven_segment_init@ret^0,c
  2742                           
  2743                           ;ECU_layer/SEVEN_SEG/ecu_seven_seg.c: 21:     ret = gpio_pin_direction_init(&(seg->segme
      +                          nt_pin[1]));
  2744   00261C  2860               	incf	seven_segment_init@seg^0,w,c
  2745   00261E  6E58               	movwf	gpio_pin_direction_init@_pin_config^0,c
  2746   002620  EC05  F011         	call	_gpio_pin_direction_init	;wreg free
  2747   002624  6E61               	movwf	seven_segment_init@ret^0,c
  2748                           
  2749                           ;ECU_layer/SEVEN_SEG/ecu_seven_seg.c: 22:     ret = gpio_pin_write_logic(&(seg->segment_
      +                          pin[1]), seg->segment_pin[1].logic);
  2750   002626  2860               	incf	seven_segment_init@seg^0,w,c
  2751   002628  6E58               	movwf	gpio_pin_write_logic@_pin_config^0,c
  2752   00262A  5060               	movf	seven_segment_init@seg^0,w,c
  2753   00262C  6ED9               	movwf	fsr2l,c
  2754   00262E  6ADA               	clrf	fsr2h,c
  2755   002630  0E01               	movlw	1
  2756   002632  26D9               	addwf	fsr2l,f,c
  2757   002634  0E00               	movlw	0
  2758   002636  BEDF               	btfsc	indf2,7,c
  2759   002638  0E01               	movlw	1
  2760   00263A  6E59               	movwf	gpio_pin_write_logic@logic^0,c
  2761   00263C  EC98  F011         	call	_gpio_pin_write_logic	;wreg free
  2762   002640  6E61               	movwf	seven_segment_init@ret^0,c
  2763                           
  2764                           ;ECU_layer/SEVEN_SEG/ecu_seven_seg.c: 23:     ret = gpio_pin_direction_init(&(seg->segme
      +                          nt_pin[2]));
  2765   002642  5060               	movf	seven_segment_init@seg^0,w,c
  2766   002644  0F02               	addlw	2
  2767   002646  6E58               	movwf	gpio_pin_direction_init@_pin_config^0,c
  2768   002648  EC05  F011         	call	_gpio_pin_direction_init	;wreg free
  2769   00264C  6E61               	movwf	seven_segment_init@ret^0,c
  2770                           
  2771                           ;ECU_layer/SEVEN_SEG/ecu_seven_seg.c: 24:     ret = gpio_pin_write_logic(&(seg->segment_
      +                          pin[2]), seg->segment_pin[2].logic);
  2772   00264E  5060               	movf	seven_segment_init@seg^0,w,c
  2773   002650  0F02               	addlw	2
  2774   002652  6E58               	movwf	gpio_pin_write_logic@_pin_config^0,c
  2775   002654  5060               	movf	seven_segment_init@seg^0,w,c
  2776   002656  6ED9               	movwf	fsr2l,c
  2777   002658  6ADA               	clrf	fsr2h,c
  2778   00265A  0E02               	movlw	2
  2779   00265C  26D9               	addwf	fsr2l,f,c
  2780   00265E  0E00               	movlw	0
  2781   002660  BEDF               	btfsc	indf2,7,c
  2782   002662  0E01               	movlw	1
  2783   002664  6E59               	movwf	gpio_pin_write_logic@logic^0,c
  2784   002666  EC98  F011         	call	_gpio_pin_write_logic	;wreg free
  2785   00266A  6E61               	movwf	seven_segment_init@ret^0,c
  2786                           
  2787                           ;ECU_layer/SEVEN_SEG/ecu_seven_seg.c: 25:     ret = gpio_pin_direction_init(&(seg->segme
      +                          nt_pin[3]));
  2788   00266C  5060               	movf	seven_segment_init@seg^0,w,c
  2789   00266E  0F03               	addlw	3
  2790   002670  6E58               	movwf	gpio_pin_direction_init@_pin_config^0,c
  2791   002672  EC05  F011         	call	_gpio_pin_direction_init	;wreg free
  2792   002676  6E61               	movwf	seven_segment_init@ret^0,c
  2793                           
  2794                           ;ECU_layer/SEVEN_SEG/ecu_seven_seg.c: 26:     ret = gpio_pin_write_logic(&(seg->segment_
      +                          pin[3]), seg->segment_pin[3].logic);
  2795   002678  5060               	movf	seven_segment_init@seg^0,w,c
  2796   00267A  0F03               	addlw	3
  2797   00267C  6E58               	movwf	gpio_pin_write_logic@_pin_config^0,c
  2798   00267E  5060               	movf	seven_segment_init@seg^0,w,c
  2799   002680  6ED9               	movwf	fsr2l,c
  2800   002682  6ADA               	clrf	fsr2h,c
  2801   002684  0E03               	movlw	3
  2802   002686  26D9               	addwf	fsr2l,f,c
  2803   002688  0E00               	movlw	0
  2804   00268A  BEDF               	btfsc	indf2,7,c
  2805   00268C  0E01               	movlw	1
  2806   00268E  6E59               	movwf	gpio_pin_write_logic@logic^0,c
  2807   002690  EC98  F011         	call	_gpio_pin_write_logic	;wreg free
  2808   002694  6E61               	movwf	seven_segment_init@ret^0,c
  2809   002696                     l3713:
  2810                           
  2811                           ;ECU_layer/SEVEN_SEG/ecu_seven_seg.c: 29: return ret;
  2812   002696  5061               	movf	seven_segment_init@ret^0,w,c
  2813   002698  0012               	return		;funcret
  2814   00269A                     __end_of_seven_segment_init:
  2815                           	callstack 0
  2816                           
  2817 ;; *************** function _lcd_8bit_send_string_pos *****************
  2818 ;; Defined at:
  2819 ;;		line 320 in file "ECU_layer/LCD/ecu_lcd.c"
  2820 ;; Parameters:    Size  Location     Type
  2821 ;;  lcd             1   25[COMRAM] PTR const struct .
  2822 ;;		 -> lcd_obj(10), 
  2823 ;;  row             1   26[COMRAM] unsigned char 
  2824 ;;  col             1   27[COMRAM] unsigned char 
  2825 ;;  str             1   28[COMRAM] PTR unsigned char 
  2826 ;;		 -> STR_10(21), STR_9(13), STR_8(21), STR_7(24), 
  2827 ;;		 -> STR_6(21), STR_5(15), STR_4(11), STR_3(11), 
  2828 ;;		 -> STR_2(9), STR_1(21), 
  2829 ;; Auto vars:     Size  Location     Type
  2830 ;;  ret             1   29[COMRAM] unsigned char 
  2831 ;; Return value:  Size  Location     Type
  2832 ;;                  1    wreg      unsigned char 
  2833 ;; Registers used:
  2834 ;;		wreg, fsr2l, fsr2h, status,2, status,0, tblptrl, tblptrh, tblptru, prodl, prodh, cstack
  2835 ;; Tracked objects:
  2836 ;;		On entry : 0/0
  2837 ;;		On exit  : 0/0
  2838 ;;		Unchanged: 0/0
  2839 ;; Data sizes:     COMRAM   BANK0   BANK1   BANK2   BANK3   BANK4   BANK5   BANK6   BANK7   BANK8   BANK9  BANK10  BANK1
      +1  BANK12  BANK13  BANK14  BANK15
  2840 ;;      Params:         4       0       0       0       0       0       0       0       0       0       0       0       
      +0       0       0       0       0
  2841 ;;      Locals:         1       0       0       0       0       0       0       0       0       0       0       0       
      +0       0       0       0       0
  2842 ;;      Temps:          0       0       0       0       0       0       0       0       0       0       0       0       
      +0       0       0       0       0
  2843 ;;      Totals:         5       0       0       0       0       0       0       0       0       0       0       0       
      +0       0       0       0       0
  2844 ;;Total ram usage:        5 bytes
  2845 ;; Hardware stack levels used: 1
  2846 ;; Hardware stack levels required when called: 7
  2847 ;; This function calls:
  2848 ;;		_lcd_8bit_send_string
  2849 ;;		_lcd_8bit_set_cursor
  2850 ;; This function is called by:
  2851 ;;		_main
  2852 ;; This function uses a non-reentrant model
  2853 ;;
  2854                           
  2855                           	psect	text2
  2856   002CA2                     __ptext2:
  2857                           	callstack 0
  2858   002CA2                     _lcd_8bit_send_string_pos:
  2859                           	callstack 23
  2860   002CA2                     
  2861                           ;ECU_layer/LCD/ecu_lcd.c: 322:     if((((void*)0) == lcd) || (((void*)0) == str)){
  2862   002CA2  506E               	movf	lcd_8bit_send_string_pos@lcd^0,w,c
  2863   002CA4  B4D8               	btfsc	status,2,c
  2864   002CA6  EF57  F016         	goto	u3331
  2865   002CAA  EF59  F016         	goto	u3330
  2866   002CAE                     u3331:
  2867   002CAE  EF61  F016         	goto	l3761
  2868   002CB2                     u3330:
  2869   002CB2  5071               	movf	lcd_8bit_send_string_pos@str^0,w,c
  2870   002CB4  A4D8               	btfss	status,2,c
  2871   002CB6  EF5F  F016         	goto	u3341
  2872   002CBA  EF61  F016         	goto	u3340
  2873   002CBE                     u3341:
  2874   002CBE  EF65  F016         	goto	l3763
  2875   002CC2                     u3340:
  2876   002CC2                     l3761:
  2877                           
  2878                           ;ECU_layer/LCD/ecu_lcd.c: 323:         ret = (Std_ReturnType)0x00;
  2879   002CC2  0E00               	movlw	0
  2880   002CC4  6E72               	movwf	lcd_8bit_send_string_pos@ret^0,c
  2881                           
  2882                           ;ECU_layer/LCD/ecu_lcd.c: 324:     }
  2883   002CC6  EF74  F016         	goto	l3767
  2884   002CCA                     l3763:
  2885   002CCA  C06E  F068         	movff	lcd_8bit_send_string_pos@lcd,lcd_8bit_set_cursor@lcd
  2886   002CCE  C06F  F069         	movff	lcd_8bit_send_string_pos@row,lcd_8bit_set_cursor@row
  2887   002CD2  C070  F06A         	movff	lcd_8bit_send_string_pos@col,lcd_8bit_set_cursor@column
  2888   002CD6  EC4D  F013         	call	_lcd_8bit_set_cursor	;wreg free
  2889   002CDA                     
  2890                           ;ECU_layer/LCD/ecu_lcd.c: 327:         ret = lcd_8bit_send_string(lcd,str);
  2891   002CDA  C06E  F068         	movff	lcd_8bit_send_string_pos@lcd,lcd_8bit_send_string@lcd
  2892   002CDE  C071  F069         	movff	lcd_8bit_send_string_pos@str,lcd_8bit_send_string@str
  2893   002CE2  ECC8  F015         	call	_lcd_8bit_send_string	;wreg free
  2894   002CE6  6E72               	movwf	lcd_8bit_send_string_pos@ret^0,c
  2895   002CE8                     l3767:
  2896                           
  2897                           ;ECU_layer/LCD/ecu_lcd.c: 331:     return ret ;
  2898   002CE8  5072               	movf	lcd_8bit_send_string_pos@ret^0,w,c
  2899   002CEA  0012               	return		;funcret
  2900   002CEC                     __end_of_lcd_8bit_send_string_pos:
  2901                           	callstack 0
  2902                           
  2903 ;; *************** function _lcd_8bit_send_string *****************
  2904 ;; Defined at:
  2905 ;;		line 299 in file "ECU_layer/LCD/ecu_lcd.c"
  2906 ;; Parameters:    Size  Location     Type
  2907 ;;  lcd             1   19[COMRAM] PTR const struct .
  2908 ;;		 -> lcd_obj(10), 
  2909 ;;  str             1   20[COMRAM] PTR unsigned char 
  2910 ;;		 -> STR_10(21), STR_9(13), STR_8(21), STR_7(24), 
  2911 ;;		 -> STR_6(21), STR_5(15), STR_4(11), STR_3(11), 
  2912 ;;		 -> STR_2(9), STR_1(21), 
  2913 ;; Auto vars:     Size  Location     Type
  2914 ;;  ret             1   21[COMRAM] unsigned char 
  2915 ;; Return value:  Size  Location     Type
  2916 ;;                  1    wreg      unsigned char 
  2917 ;; Registers used:
  2918 ;;		wreg, fsr2l, fsr2h, status,2, status,0, tblptrl, tblptrh, tblptru, prodl, prodh, cstack
  2919 ;; Tracked objects:
  2920 ;;		On entry : 0/0
  2921 ;;		On exit  : 0/0
  2922 ;;		Unchanged: 0/0
  2923 ;; Data sizes:     COMRAM   BANK0   BANK1   BANK2   BANK3   BANK4   BANK5   BANK6   BANK7   BANK8   BANK9  BANK10  BANK1
      +1  BANK12  BANK13  BANK14  BANK15
  2924 ;;      Params:         2       0       0       0       0       0       0       0       0       0       0       0       
      +0       0       0       0       0
  2925 ;;      Locals:         1       0       0       0       0       0       0       0       0       0       0       0       
      +0       0       0       0       0
  2926 ;;      Temps:          0       0       0       0       0       0       0       0       0       0       0       0       
      +0       0       0       0       0
  2927 ;;      Totals:         3       0       0       0       0       0       0       0       0       0       0       0       
      +0       0       0       0       0
  2928 ;;Total ram usage:        3 bytes
  2929 ;; Hardware stack levels used: 1
  2930 ;; Hardware stack levels required when called: 6
  2931 ;; This function calls:
  2932 ;;		_lcd_8bit_send_char_data
  2933 ;; This function is called by:
  2934 ;;		_lcd_8bit_send_string_pos
  2935 ;; This function uses a non-reentrant model
  2936 ;;
  2937                           
  2938                           	psect	text3
  2939   002B90                     __ptext3:
  2940                           	callstack 0
  2941   002B90                     _lcd_8bit_send_string:
  2942                           	callstack 23
  2943   002B90                     
  2944                           ;ECU_layer/LCD/ecu_lcd.c: 300:     Std_ReturnType ret = (Std_ReturnType)0x01 ;
  2945   002B90  0E01               	movlw	1
  2946   002B92  6E6A               	movwf	lcd_8bit_send_string@ret^0,c
  2947                           
  2948                           ;ECU_layer/LCD/ecu_lcd.c: 301:     if((((void*)0) == lcd) || (((void*)0) == str)){
  2949   002B94  5068               	movf	lcd_8bit_send_string@lcd^0,w,c
  2950   002B96  B4D8               	btfsc	status,2,c
  2951   002B98  EFD0  F015         	goto	u3151
  2952   002B9C  EFD2  F015         	goto	u3150
  2953   002BA0                     u3151:
  2954   002BA0  EFDA  F015         	goto	l3611
  2955   002BA4                     u3150:
  2956   002BA4  5069               	movf	lcd_8bit_send_string@str^0,w,c
  2957   002BA6  A4D8               	btfss	status,2,c
  2958   002BA8  EFD8  F015         	goto	u3161
  2959   002BAC  EFDA  F015         	goto	u3160
  2960   002BB0                     u3161:
  2961   002BB0  EFEC  F015         	goto	l3617
  2962   002BB4                     u3160:
  2963   002BB4                     l3611:
  2964                           
  2965                           ;ECU_layer/LCD/ecu_lcd.c: 302:         ret = (Std_ReturnType)0x00;
  2966   002BB4  0E00               	movlw	0
  2967   002BB6  6E6A               	movwf	lcd_8bit_send_string@ret^0,c
  2968                           
  2969                           ;ECU_layer/LCD/ecu_lcd.c: 303:     }
  2970   002BB8  EFFB  F015         	goto	l3619
  2971   002BBC                     l3613:
  2972                           
  2973                           ;ECU_layer/LCD/ecu_lcd.c: 306:             ret = lcd_8bit_send_char_data(lcd , *str);
  2974   002BBC  C068  F062         	movff	lcd_8bit_send_string@lcd,lcd_8bit_send_char_data@lcd
  2975   002BC0  C069  FFF6         	movff	lcd_8bit_send_string@str,tblptrl
  2976   002BC4                     	if	1	;There is more than 1 active tblptr byte
  2977   002BC4  0E10               	movlw	high __smallconst
  2978   002BC6  6EF7               	movwf	tblptrh,c
  2979   002BC8                     	endif
  2980   002BC8                     	if	1	;Program memory is < 0x10000, tblptru is always zero
  2981   002BC8  6AF8               	clrf	tblptru,c
  2982   002BCA                     	endif
  2983   002BCA                     	if	0	;tblptru may be non-zero
  2984   002BCA                     	endif
  2985   002BCA  0008               	tblrd		*
  2986   002BCC  CFF5 F063          	movff	tablat,lcd_8bit_send_char_data@data
  2987   002BD0  EC17  F015         	call	_lcd_8bit_send_char_data	;wreg free
  2988   002BD4  6E6A               	movwf	lcd_8bit_send_string@ret^0,c
  2989   002BD6                     
  2990                           ;ECU_layer/LCD/ecu_lcd.c: 307:             str++;
  2991   002BD6  2A69               	incf	lcd_8bit_send_string@str^0,f,c
  2992   002BD8                     l3617:
  2993                           
  2994                           ;ECU_layer/LCD/ecu_lcd.c: 305:         while(*str){
  2995   002BD8  C069  FFF6         	movff	lcd_8bit_send_string@str,tblptrl
  2996   002BDC                     	if	1	;There is more than 1 active tblptr byte
  2997   002BDC  0E10               	movlw	high __smallconst
  2998   002BDE  6EF7               	movwf	tblptrh,c
  2999   002BE0                     	endif
  3000   002BE0                     	if	1	;Program memory is < 0x10000, tblptru is always zero
  3001   002BE0  6AF8               	clrf	tblptru,c
  3002   002BE2                     	endif
  3003   002BE2                     	if	0	;tblptru may be non-zero
  3004   002BE2                     	endif
  3005   002BE2  0008               	tblrd		*
  3006   002BE4  50F5               	movf	tablat,w,c
  3007   002BE6  0900               	iorlw	0
  3008   002BE8  A4D8               	btfss	status,2,c
  3009   002BEA  EFF9  F015         	goto	u3171
  3010   002BEE  EFFB  F015         	goto	u3170
  3011   002BF2                     u3171:
  3012   002BF2  EFDE  F015         	goto	l3613
  3013   002BF6                     u3170:
  3014   002BF6                     l3619:
  3015                           
  3016                           ;ECU_layer/LCD/ecu_lcd.c: 310:     return ret ;
  3017   002BF6  506A               	movf	lcd_8bit_send_string@ret^0,w,c
  3018   002BF8  0012               	return		;funcret
  3019   002BFA                     __end_of_lcd_8bit_send_string:
  3020                           	callstack 0
  3021                           
  3022 ;; *************** function _lcd_8bit_send_custom_char *****************
  3023 ;; Defined at:
  3024 ;;		line 342 in file "ECU_layer/LCD/ecu_lcd.c"
  3025 ;; Parameters:    Size  Location     Type
  3026 ;;  lcd             1   30[COMRAM] PTR const struct .
  3027 ;;		 -> lcd_obj(10), 
  3028 ;;  row             1   31[COMRAM] unsigned char 
  3029 ;;  col             1   32[COMRAM] unsigned char 
  3030 ;;  _char           1   33[COMRAM] PTR const unsigned char 
  3031 ;;		 -> heart(8), smile(8), 
  3032 ;;  mem_pos         1   34[COMRAM] unsigned char 
  3033 ;; Auto vars:     Size  Location     Type
  3034 ;;  count           1   37[COMRAM] unsigned char 
  3035 ;;  ret             1   36[COMRAM] unsigned char 
  3036 ;; Return value:  Size  Location     Type
  3037 ;;                  1    wreg      unsigned char 
  3038 ;; Registers used:
  3039 ;;		wreg, fsr2l, fsr2h, status,2, status,0, tblptrl, tblptrh, tblptru, prodl, prodh, cstack
  3040 ;; Tracked objects:
  3041 ;;		On entry : 0/0
  3042 ;;		On exit  : 0/0
  3043 ;;		Unchanged: 0/0
  3044 ;; Data sizes:     COMRAM   BANK0   BANK1   BANK2   BANK3   BANK4   BANK5   BANK6   BANK7   BANK8   BANK9  BANK10  BANK1
      +1  BANK12  BANK13  BANK14  BANK15
  3045 ;;      Params:         5       0       0       0       0       0       0       0       0       0       0       0       
      +0       0       0       0       0
  3046 ;;      Locals:         2       0       0       0       0       0       0       0       0       0       0       0       
      +0       0       0       0       0
  3047 ;;      Temps:          1       0       0       0       0       0       0       0       0       0       0       0       
      +0       0       0       0       0
  3048 ;;      Totals:         8       0       0       0       0       0       0       0       0       0       0       0       
      +0       0       0       0       0
  3049 ;;Total ram usage:        8 bytes
  3050 ;; Hardware stack levels used: 1
  3051 ;; Hardware stack levels required when called: 8
  3052 ;; This function calls:
  3053 ;;		_lcd_8bit_send_char_data
  3054 ;;		_lcd_8bit_send_char_data_pos
  3055 ;;		_lcd_8bit_send_command
  3056 ;; This function is called by:
  3057 ;;		_main
  3058 ;; This function uses a non-reentrant model
  3059 ;;
  3060                           
  3061                           	psect	text4
  3062   0029B2                     __ptext4:
  3063                           	callstack 0
  3064   0029B2                     _lcd_8bit_send_custom_char:
  3065                           	callstack 22
  3066   0029B2                     
  3067                           ;ECU_layer/LCD/ecu_lcd.c: 344:     uint8 count =0;
  3068   0029B2  0E00               	movlw	0
  3069   0029B4  6E7A               	movwf	lcd_8bit_send_custom_char@count^0,c
  3070                           
  3071                           ;ECU_layer/LCD/ecu_lcd.c: 345:     if(((void*)0) == lcd){
  3072   0029B6  5073               	movf	lcd_8bit_send_custom_char@lcd^0,w,c
  3073   0029B8  A4D8               	btfss	status,2,c
  3074   0029BA  EFE1  F014         	goto	u3421
  3075   0029BE  EFE3  F014         	goto	u3420
  3076   0029C2                     u3421:
  3077   0029C2  EFE7  F014         	goto	l3839
  3078   0029C6                     u3420:
  3079   0029C6                     
  3080                           ;ECU_layer/LCD/ecu_lcd.c: 346:         ret = (Std_ReturnType)0x00;
  3081   0029C6  0E00               	movlw	0
  3082   0029C8  6E79               	movwf	lcd_8bit_send_custom_char@ret^0,c
  3083                           
  3084                           ;ECU_layer/LCD/ecu_lcd.c: 347:     }
  3085   0029CA  EF15  F015         	goto	l3855
  3086   0029CE                     l3839:
  3087   0029CE  C073  F062         	movff	lcd_8bit_send_custom_char@lcd,lcd_8bit_send_command@lcd
  3088   0029D2  5077               	movf	lcd_8bit_send_custom_char@mem_pos^0,w,c
  3089   0029D4  0D08               	mullw	8
  3090   0029D6  50F3               	movf	243,w,c
  3091   0029D8  0F40               	addlw	64
  3092   0029DA  6E63               	movwf	lcd_8bit_send_command@command^0,c
  3093   0029DC  EC52  F015         	call	_lcd_8bit_send_command	;wreg free
  3094   0029E0                     
  3095                           ;ECU_layer/LCD/ecu_lcd.c: 350:         for(count = 0 ; count < 8; count++){
  3096   0029E0  0E00               	movlw	0
  3097   0029E2  6E7A               	movwf	lcd_8bit_send_custom_char@count^0,c
  3098   0029E4                     l3847:
  3099   0029E4  C073  F062         	movff	lcd_8bit_send_custom_char@lcd,lcd_8bit_send_char_data@lcd
  3100   0029E8  5076               	movf	lcd_8bit_send_custom_char@_char^0,w,c
  3101   0029EA  247A               	addwf	lcd_8bit_send_custom_char@count^0,w,c
  3102   0029EC  6E78               	movwf	??_lcd_8bit_send_custom_char^0,c
  3103   0029EE  C078  FFF6         	movff	??_lcd_8bit_send_custom_char,tblptrl
  3104   0029F2                     	if	1	;There is more than 1 active tblptr byte
  3105   0029F2  0E10               	movlw	high __smallconst
  3106   0029F4  6EF7               	movwf	tblptrh,c
  3107   0029F6                     	endif
  3108   0029F6                     	if	1	;Program memory is < 0x10000, tblptru is always zero
  3109   0029F6  6AF8               	clrf	tblptru,c
  3110   0029F8                     	endif
  3111   0029F8                     	if	0	;tblptru may be non-zero
  3112   0029F8                     	endif
  3113   0029F8  0008               	tblrd		*
  3114   0029FA  CFF5 F063          	movff	tablat,lcd_8bit_send_char_data@data
  3115   0029FE  EC17  F015         	call	_lcd_8bit_send_char_data	;wreg free
  3116   002A02                     
  3117                           ;ECU_layer/LCD/ecu_lcd.c: 352:         }
  3118   002A02  2A7A               	incf	lcd_8bit_send_custom_char@count^0,f,c
  3119   002A04  0E07               	movlw	7
  3120   002A06  647A               	cpfsgt	lcd_8bit_send_custom_char@count^0,c
  3121   002A08  EF08  F015         	goto	u3431
  3122   002A0C  EF0A  F015         	goto	u3430
  3123   002A10                     u3431:
  3124   002A10  EFF2  F014         	goto	l3847
  3125   002A14                     u3430:
  3126   002A14                     
  3127                           ;ECU_layer/LCD/ecu_lcd.c: 353:         ret = lcd_8bit_send_char_data_pos(lcd,row,col,mem
      +                          _pos);
  3128   002A14  C073  F06E         	movff	lcd_8bit_send_custom_char@lcd,lcd_8bit_send_char_data_pos@lcd
  3129   002A18  C074  F06F         	movff	lcd_8bit_send_custom_char@row,lcd_8bit_send_char_data_pos@row
  3130   002A1C  C075  F070         	movff	lcd_8bit_send_custom_char@col,lcd_8bit_send_char_data_pos@col
  3131   002A20  C077  F071         	movff	lcd_8bit_send_custom_char@mem_pos,lcd_8bit_send_char_data_pos@data
  3132   002A24  EC95  F016         	call	_lcd_8bit_send_char_data_pos	;wreg free
  3133   002A28  6E79               	movwf	lcd_8bit_send_custom_char@ret^0,c
  3134   002A2A                     l3855:
  3135                           
  3136                           ;ECU_layer/LCD/ecu_lcd.c: 355:     return ret ;
  3137   002A2A  5079               	movf	lcd_8bit_send_custom_char@ret^0,w,c
  3138   002A2C  0012               	return		;funcret
  3139   002A2E                     __end_of_lcd_8bit_send_custom_char:
  3140                           	callstack 0
  3141                           
  3142 ;; *************** function _lcd_8bit_send_char_data_pos *****************
  3143 ;; Defined at:
  3144 ;;		line 282 in file "ECU_layer/LCD/ecu_lcd.c"
  3145 ;; Parameters:    Size  Location     Type
  3146 ;;  lcd             1   25[COMRAM] PTR const struct .
  3147 ;;		 -> lcd_obj(10), 
  3148 ;;  row             1   26[COMRAM] unsigned char 
  3149 ;;  col             1   27[COMRAM] unsigned char 
  3150 ;;  data            1   28[COMRAM] unsigned char 
  3151 ;; Auto vars:     Size  Location     Type
  3152 ;;  ret             1   29[COMRAM] unsigned char 
  3153 ;; Return value:  Size  Location     Type
  3154 ;;                  1    wreg      unsigned char 
  3155 ;; Registers used:
  3156 ;;		wreg, fsr2l, fsr2h, status,2, status,0, prodl, prodh, cstack
  3157 ;; Tracked objects:
  3158 ;;		On entry : 0/0
  3159 ;;		On exit  : 0/0
  3160 ;;		Unchanged: 0/0
  3161 ;; Data sizes:     COMRAM   BANK0   BANK1   BANK2   BANK3   BANK4   BANK5   BANK6   BANK7   BANK8   BANK9  BANK10  BANK1
      +1  BANK12  BANK13  BANK14  BANK15
  3162 ;;      Params:         4       0       0       0       0       0       0       0       0       0       0       0       
      +0       0       0       0       0
  3163 ;;      Locals:         1       0       0       0       0       0       0       0       0       0       0       0       
      +0       0       0       0       0
  3164 ;;      Temps:          0       0       0       0       0       0       0       0       0       0       0       0       
      +0       0       0       0       0
  3165 ;;      Totals:         5       0       0       0       0       0       0       0       0       0       0       0       
      +0       0       0       0       0
  3166 ;;Total ram usage:        5 bytes
  3167 ;; Hardware stack levels used: 1
  3168 ;; Hardware stack levels required when called: 7
  3169 ;; This function calls:
  3170 ;;		_lcd_8bit_send_char_data
  3171 ;;		_lcd_8bit_set_cursor
  3172 ;; This function is called by:
  3173 ;;		_main
  3174 ;;		_lcd_8bit_send_custom_char
  3175 ;; This function uses a non-reentrant model
  3176 ;;
  3177                           
  3178                           	psect	text5
  3179   002D2A                     __ptext5:
  3180                           	callstack 0
  3181   002D2A                     _lcd_8bit_send_char_data_pos:
  3182                           	callstack 22
  3183   002D2A                     
  3184                           ;ECU_layer/LCD/ecu_lcd.c: 284:     if(((void*)0) == lcd){
  3185   002D2A  506E               	movf	lcd_8bit_send_char_data_pos@lcd^0,w,c
  3186   002D2C  A4D8               	btfss	status,2,c
  3187   002D2E  EF9B  F016         	goto	u3011
  3188   002D32  EF9D  F016         	goto	u3010
  3189   002D36                     u3011:
  3190   002D36  EFA1  F016         	goto	l3525
  3191   002D3A                     u3010:
  3192   002D3A                     
  3193                           ;ECU_layer/LCD/ecu_lcd.c: 285:         ret = (Std_ReturnType)0x00;
  3194   002D3A  0E00               	movlw	0
  3195   002D3C  6E72               	movwf	lcd_8bit_send_char_data_pos@ret^0,c
  3196                           
  3197                           ;ECU_layer/LCD/ecu_lcd.c: 286:     }
  3198   002D3E  EFB1  F016         	goto	l3527
  3199   002D42                     l3525:
  3200                           
  3201                           ;ECU_layer/LCD/ecu_lcd.c: 288:         ret = lcd_8bit_set_cursor(lcd ,row , col);
  3202   002D42  C06E  F068         	movff	lcd_8bit_send_char_data_pos@lcd,lcd_8bit_set_cursor@lcd
  3203   002D46  C06F  F069         	movff	lcd_8bit_send_char_data_pos@row,lcd_8bit_set_cursor@row
  3204   002D4A  C070  F06A         	movff	lcd_8bit_send_char_data_pos@col,lcd_8bit_set_cursor@column
  3205   002D4E  EC4D  F013         	call	_lcd_8bit_set_cursor	;wreg free
  3206   002D52  6E72               	movwf	lcd_8bit_send_char_data_pos@ret^0,c
  3207                           
  3208                           ;ECU_layer/LCD/ecu_lcd.c: 289:         ret = lcd_8bit_send_char_data(lcd , data);
  3209   002D54  C06E  F062         	movff	lcd_8bit_send_char_data_pos@lcd,lcd_8bit_send_char_data@lcd
  3210   002D58  C071  F063         	movff	lcd_8bit_send_char_data_pos@data,lcd_8bit_send_char_data@data
  3211   002D5C  EC17  F015         	call	_lcd_8bit_send_char_data	;wreg free
  3212   002D60  6E72               	movwf	lcd_8bit_send_char_data_pos@ret^0,c
  3213   002D62                     l3527:
  3214                           
  3215                           ;ECU_layer/LCD/ecu_lcd.c: 291:     return ret ;
  3216   002D62  5072               	movf	lcd_8bit_send_char_data_pos@ret^0,w,c
  3217   002D64  0012               	return		;funcret
  3218   002D66                     __end_of_lcd_8bit_send_char_data_pos:
  3219                           	callstack 0
  3220                           
  3221 ;; *************** function _lcd_8bit_set_cursor *****************
  3222 ;; Defined at:
  3223 ;;		line 466 in file "ECU_layer/LCD/ecu_lcd.c"
  3224 ;; Parameters:    Size  Location     Type
  3225 ;;  lcd             1   19[COMRAM] PTR const struct .
  3226 ;;		 -> lcd_obj(10), 
  3227 ;;  row             1   20[COMRAM] unsigned char 
  3228 ;;  column          1   21[COMRAM] unsigned char 
  3229 ;; Auto vars:     Size  Location     Type
  3230 ;;  ret             1   24[COMRAM] unsigned char 
  3231 ;; Return value:  Size  Location     Type
  3232 ;;                  1    wreg      unsigned char 
  3233 ;; Registers used:
  3234 ;;		wreg, fsr2l, fsr2h, status,2, status,0, prodl, prodh, cstack
  3235 ;; Tracked objects:
  3236 ;;		On entry : 0/0
  3237 ;;		On exit  : 0/0
  3238 ;;		Unchanged: 0/0
  3239 ;; Data sizes:     COMRAM   BANK0   BANK1   BANK2   BANK3   BANK4   BANK5   BANK6   BANK7   BANK8   BANK9  BANK10  BANK1
      +1  BANK12  BANK13  BANK14  BANK15
  3240 ;;      Params:         3       0       0       0       0       0       0       0       0       0       0       0       
      +0       0       0       0       0
  3241 ;;      Locals:         1       0       0       0       0       0       0       0       0       0       0       0       
      +0       0       0       0       0
  3242 ;;      Temps:          2       0       0       0       0       0       0       0       0       0       0       0       
      +0       0       0       0       0
  3243 ;;      Totals:         6       0       0       0       0       0       0       0       0       0       0       0       
      +0       0       0       0       0
  3244 ;;Total ram usage:        6 bytes
  3245 ;; Hardware stack levels used: 1
  3246 ;; Hardware stack levels required when called: 6
  3247 ;; This function calls:
  3248 ;;		_lcd_8bit_send_command
  3249 ;; This function is called by:
  3250 ;;		_lcd_8bit_send_char_data_pos
  3251 ;;		_lcd_8bit_send_string_pos
  3252 ;; This function uses a non-reentrant model
  3253 ;;
  3254                           
  3255                           	psect	text6
  3256   00269A                     __ptext6:
  3257                           	callstack 0
  3258   00269A                     _lcd_8bit_set_cursor:
  3259                           	callstack 23
  3260   00269A                     
  3261                           ;ECU_layer/LCD/ecu_lcd.c: 467: Std_ReturnType ret = (Std_ReturnType)0x01 ;
  3262   00269A  0E01               	movlw	1
  3263   00269C  6E6D               	movwf	lcd_8bit_set_cursor@ret^0,c
  3264                           
  3265                           ;ECU_layer/LCD/ecu_lcd.c: 468:     if(((void*)0) == lcd){
  3266   00269E  5068               	movf	lcd_8bit_set_cursor@lcd^0,w,c
  3267   0026A0  A4D8               	btfss	status,2,c
  3268   0026A2  EF55  F013         	goto	u3001
  3269   0026A6  EF57  F013         	goto	u3000
  3270   0026AA                     u3001:
  3271   0026AA  EF5B  F013         	goto	l3499
  3272   0026AE                     u3000:
  3273   0026AE                     
  3274                           ;ECU_layer/LCD/ecu_lcd.c: 469:         ret = (Std_ReturnType)0x00;
  3275   0026AE  0E00               	movlw	0
  3276   0026B0  6E6D               	movwf	lcd_8bit_set_cursor@ret^0,c
  3277                           
  3278                           ;ECU_layer/LCD/ecu_lcd.c: 470:     }
  3279   0026B2  EFA3  F013         	goto	l3513
  3280   0026B6                     l3499:
  3281                           
  3282                           ;ECU_layer/LCD/ecu_lcd.c: 472:         column--;
  3283   0026B6  066A               	decf	lcd_8bit_set_cursor@column^0,f,c
  3284                           
  3285                           ;ECU_layer/LCD/ecu_lcd.c: 473:         switch (row){
  3286   0026B8  EF86  F013         	goto	l3511
  3287   0026BC                     l3501:
  3288                           
  3289                           ;ECU_layer/LCD/ecu_lcd.c: 475:                 ret = lcd_8bit_send_command(lcd , (0x80 +
      +                           column));
  3290   0026BC  C068  F062         	movff	lcd_8bit_set_cursor@lcd,lcd_8bit_send_command@lcd
  3291   0026C0  506A               	movf	lcd_8bit_set_cursor@column^0,w,c
  3292   0026C2  0F80               	addlw	128
  3293   0026C4  6E63               	movwf	lcd_8bit_send_command@command^0,c
  3294   0026C6  EC52  F015         	call	_lcd_8bit_send_command	;wreg free
  3295   0026CA  6E6D               	movwf	lcd_8bit_set_cursor@ret^0,c
  3296                           
  3297                           ;ECU_layer/LCD/ecu_lcd.c: 476:                 break ;
  3298   0026CC  EFA3  F013         	goto	l3513
  3299   0026D0                     l3503:
  3300                           
  3301                           ;ECU_layer/LCD/ecu_lcd.c: 478:                 ret = lcd_8bit_send_command(lcd , (0xC0 +
      +                           column));
  3302   0026D0  C068  F062         	movff	lcd_8bit_set_cursor@lcd,lcd_8bit_send_command@lcd
  3303   0026D4  506A               	movf	lcd_8bit_set_cursor@column^0,w,c
  3304   0026D6  0FC0               	addlw	192
  3305   0026D8  6E63               	movwf	lcd_8bit_send_command@command^0,c
  3306   0026DA  EC52  F015         	call	_lcd_8bit_send_command	;wreg free
  3307   0026DE  6E6D               	movwf	lcd_8bit_set_cursor@ret^0,c
  3308                           
  3309                           ;ECU_layer/LCD/ecu_lcd.c: 479:                 break;
  3310   0026E0  EFA3  F013         	goto	l3513
  3311   0026E4                     l3505:
  3312                           
  3313                           ;ECU_layer/LCD/ecu_lcd.c: 481:                 ret = lcd_8bit_send_command(lcd , (0x94 +
      +                           column));
  3314   0026E4  C068  F062         	movff	lcd_8bit_set_cursor@lcd,lcd_8bit_send_command@lcd
  3315   0026E8  506A               	movf	lcd_8bit_set_cursor@column^0,w,c
  3316   0026EA  0F94               	addlw	148
  3317   0026EC  6E63               	movwf	lcd_8bit_send_command@command^0,c
  3318   0026EE  EC52  F015         	call	_lcd_8bit_send_command	;wreg free
  3319   0026F2  6E6D               	movwf	lcd_8bit_set_cursor@ret^0,c
  3320                           
  3321                           ;ECU_layer/LCD/ecu_lcd.c: 482:                 break;
  3322   0026F4  EFA3  F013         	goto	l3513
  3323   0026F8                     l3507:
  3324                           
  3325                           ;ECU_layer/LCD/ecu_lcd.c: 484:                 ret = lcd_8bit_send_command(lcd , (0xD4 +
      +                           column));
  3326   0026F8  C068  F062         	movff	lcd_8bit_set_cursor@lcd,lcd_8bit_send_command@lcd
  3327   0026FC  506A               	movf	lcd_8bit_set_cursor@column^0,w,c
  3328   0026FE  0FD4               	addlw	212
  3329   002700  6E63               	movwf	lcd_8bit_send_command@command^0,c
  3330   002702  EC52  F015         	call	_lcd_8bit_send_command	;wreg free
  3331   002706  6E6D               	movwf	lcd_8bit_set_cursor@ret^0,c
  3332                           
  3333                           ;ECU_layer/LCD/ecu_lcd.c: 485:                 break;
  3334   002708  EFA3  F013         	goto	l3513
  3335   00270C                     l3511:
  3336   00270C  5069               	movf	lcd_8bit_set_cursor@row^0,w,c
  3337   00270E  6E6B               	movwf	??_lcd_8bit_set_cursor^0,c
  3338   002710  6A6C               	clrf	(??_lcd_8bit_set_cursor+1)^0,c
  3339                           
  3340                           ; Switch on 2 bytes has been partitioned into a top level switch of size 1, and 1 sub-sw
      +                          itches
  3341                           ; Switch size 1, requested type "simple"
  3342                           ; Number of cases is 1, Range of values is 0 to 0
  3343                           ; switch strategies available:
  3344                           ; Name         Instructions Cycles
  3345                           ; simple_byte            4     3 (average)
  3346                           ;	Chosen strategy is simple_byte
  3347   002712  506C               	movf	(??_lcd_8bit_set_cursor+1)^0,w,c
  3348   002714  0A00               	xorlw	0	; case 0
  3349   002716  B4D8               	btfsc	status,2,c
  3350   002718  EF90  F013         	goto	l5011
  3351   00271C  EFA3  F013         	goto	l3513
  3352   002720                     l5011:
  3353                           
  3354                           ; Switch size 1, requested type "simple"
  3355                           ; Number of cases is 4, Range of values is 1 to 4
  3356                           ; switch strategies available:
  3357                           ; Name         Instructions Cycles
  3358                           ; simple_byte           13     7 (average)
  3359                           ;	Chosen strategy is simple_byte
  3360   002720  506B               	movf	??_lcd_8bit_set_cursor^0,w,c
  3361   002722  0A01               	xorlw	1	; case 1
  3362   002724  B4D8               	btfsc	status,2,c
  3363   002726  EF5E  F013         	goto	l3501
  3364   00272A  0A03               	xorlw	3	; case 2
  3365   00272C  B4D8               	btfsc	status,2,c
  3366   00272E  EF68  F013         	goto	l3503
  3367   002732  0A01               	xorlw	1	; case 3
  3368   002734  B4D8               	btfsc	status,2,c
  3369   002736  EF72  F013         	goto	l3505
  3370   00273A  0A07               	xorlw	7	; case 4
  3371   00273C  B4D8               	btfsc	status,2,c
  3372   00273E  EF7C  F013         	goto	l3507
  3373   002742  EFA3  F013         	goto	l3513
  3374   002746                     l3513:
  3375                           
  3376                           ;ECU_layer/LCD/ecu_lcd.c: 490:     return ret ;
  3377   002746  506D               	movf	lcd_8bit_set_cursor@ret^0,w,c
  3378   002748  0012               	return		;funcret
  3379   00274A                     __end_of_lcd_8bit_set_cursor:
  3380                           	callstack 0
  3381                           
  3382 ;; *************** function _lcd_8bit_send_char_data *****************
  3383 ;; Defined at:
  3384 ;;		line 259 in file "ECU_layer/LCD/ecu_lcd.c"
  3385 ;; Parameters:    Size  Location     Type
  3386 ;;  lcd             1   13[COMRAM] PTR const struct .
  3387 ;;		 -> lcd_obj(10), 
  3388 ;;  data            1   14[COMRAM] unsigned char 
  3389 ;; Auto vars:     Size  Location     Type
  3390 ;;  count           1   18[COMRAM] unsigned char 
  3391 ;;  ret             1   17[COMRAM] unsigned char 
  3392 ;; Return value:  Size  Location     Type
  3393 ;;                  1    wreg      unsigned char 
  3394 ;; Registers used:
  3395 ;;		wreg, fsr2l, fsr2h, status,2, status,0, prodl, prodh, cstack
  3396 ;; Tracked objects:
  3397 ;;		On entry : 0/0
  3398 ;;		On exit  : 0/0
  3399 ;;		Unchanged: 0/0
  3400 ;; Data sizes:     COMRAM   BANK0   BANK1   BANK2   BANK3   BANK4   BANK5   BANK6   BANK7   BANK8   BANK9  BANK10  BANK1
      +1  BANK12  BANK13  BANK14  BANK15
  3401 ;;      Params:         2       0       0       0       0       0       0       0       0       0       0       0       
      +0       0       0       0       0
  3402 ;;      Locals:         2       0       0       0       0       0       0       0       0       0       0       0       
      +0       0       0       0       0
  3403 ;;      Temps:          2       0       0       0       0       0       0       0       0       0       0       0       
      +0       0       0       0       0
  3404 ;;      Totals:         6       0       0       0       0       0       0       0       0       0       0       0       
      +0       0       0       0       0
  3405 ;;Total ram usage:        6 bytes
  3406 ;; Hardware stack levels used: 1
  3407 ;; Hardware stack levels required when called: 5
  3408 ;; This function calls:
  3409 ;;		_gpio_pin_write_logic
  3410 ;;		_lcd_8bit_send_enable
  3411 ;; This function is called by:
  3412 ;;		_lcd_8bit_send_char_data_pos
  3413 ;;		_lcd_8bit_send_string
  3414 ;;		_lcd_8bit_send_custom_char
  3415 ;; This function uses a non-reentrant model
  3416 ;;
  3417                           
  3418                           	psect	text7
  3419   002A2E                     __ptext7:
  3420                           	callstack 0
  3421   002A2E                     _lcd_8bit_send_char_data:
  3422                           	callstack 23
  3423   002A2E                     
  3424                           ;ECU_layer/LCD/ecu_lcd.c: 261:     uint8 count =0;
  3425   002A2E  0E00               	movlw	0
  3426   002A30  6E67               	movwf	lcd_8bit_send_char_data@count^0,c
  3427                           
  3428                           ;ECU_layer/LCD/ecu_lcd.c: 262:     if(((void*)0) == lcd){
  3429   002A32  5062               	movf	lcd_8bit_send_char_data@lcd^0,w,c
  3430   002A34  A4D8               	btfss	status,2,c
  3431   002A36  EF1F  F015         	goto	u2971
  3432   002A3A  EF21  F015         	goto	u2970
  3433   002A3E                     u2971:
  3434   002A3E  EF25  F015         	goto	l3475
  3435   002A42                     u2970:
  3436   002A42                     
  3437                           ;ECU_layer/LCD/ecu_lcd.c: 263:         ret = (Std_ReturnType)0x00;
  3438   002A42  0E00               	movlw	0
  3439   002A44  6E66               	movwf	lcd_8bit_send_char_data@ret^0,c
  3440                           
  3441                           ;ECU_layer/LCD/ecu_lcd.c: 264:     }
  3442   002A46  EF50  F015         	goto	l3491
  3443   002A4A                     l3475:
  3444   002A4A  C062  F058         	movff	lcd_8bit_send_char_data@lcd,gpio_pin_write_logic@_pin_config
  3445   002A4E  0E01               	movlw	1
  3446   002A50  6E59               	movwf	gpio_pin_write_logic@logic^0,c
  3447   002A52  EC98  F011         	call	_gpio_pin_write_logic	;wreg free
  3448   002A56                     
  3449                           ;ECU_layer/LCD/ecu_lcd.c: 267:         for(count =0 ; count < 8 ; count ++){
  3450   002A56  0E00               	movlw	0
  3451   002A58  6E67               	movwf	lcd_8bit_send_char_data@count^0,c
  3452   002A5A                     l3483:
  3453                           
  3454                           ;ECU_layer/LCD/ecu_lcd.c: 268:             gpio_pin_write_logic(&(lcd->lcd_data[count]) 
      +                          , (data >> count) & (uint8)0x01);
  3455   002A5A  5062               	movf	lcd_8bit_send_char_data@lcd^0,w,c
  3456   002A5C  2467               	addwf	lcd_8bit_send_char_data@count^0,w,c
  3457   002A5E  0F02               	addlw	2
  3458   002A60  6E58               	movwf	gpio_pin_write_logic@_pin_config^0,c
  3459   002A62  C067  F064         	movff	lcd_8bit_send_char_data@count,??_lcd_8bit_send_char_data
  3460   002A66  C063  F065         	movff	lcd_8bit_send_char_data@data,??_lcd_8bit_send_char_data+1
  3461   002A6A  2A64               	incf	??_lcd_8bit_send_char_data^0,f,c
  3462   002A6C  EF3A  F015         	goto	u2984
  3463   002A70                     u2985:
  3464   002A70  90D8               	bcf	status,0,c
  3465   002A72  3265               	rrcf	(??_lcd_8bit_send_char_data+1)^0,f,c
  3466   002A74                     u2984:
  3467   002A74  2E64               	decfsz	??_lcd_8bit_send_char_data^0,f,c
  3468   002A76  EF38  F015         	goto	u2985
  3469   002A7A  5065               	movf	(??_lcd_8bit_send_char_data+1)^0,w,c
  3470   002A7C  0B01               	andlw	1
  3471   002A7E  6E59               	movwf	gpio_pin_write_logic@logic^0,c
  3472   002A80  EC98  F011         	call	_gpio_pin_write_logic	;wreg free
  3473   002A84                     
  3474                           ;ECU_layer/LCD/ecu_lcd.c: 269:         }
  3475   002A84  2A67               	incf	lcd_8bit_send_char_data@count^0,f,c
  3476   002A86  0E07               	movlw	7
  3477   002A88  6467               	cpfsgt	lcd_8bit_send_char_data@count^0,c
  3478   002A8A  EF49  F015         	goto	u2991
  3479   002A8E  EF4B  F015         	goto	u2990
  3480   002A92                     u2991:
  3481   002A92  EF2D  F015         	goto	l3483
  3482   002A96                     u2990:
  3483   002A96                     
  3484                           ;ECU_layer/LCD/ecu_lcd.c: 270:         ret = lcd_8bit_send_enable(lcd);
  3485   002A96  C062  F060         	movff	lcd_8bit_send_char_data@lcd,lcd_8bit_send_enable@lcd
  3486   002A9A  EC76  F016         	call	_lcd_8bit_send_enable	;wreg free
  3487   002A9E  6E66               	movwf	lcd_8bit_send_char_data@ret^0,c
  3488   002AA0                     l3491:
  3489                           
  3490                           ;ECU_layer/LCD/ecu_lcd.c: 272:     return ret ;
  3491   002AA0  5066               	movf	lcd_8bit_send_char_data@ret^0,w,c
  3492   002AA2  0012               	return		;funcret
  3493   002AA4                     __end_of_lcd_8bit_send_char_data:
  3494                           	callstack 0
  3495                           
  3496 ;; *************** function _lcd_8bit_init *****************
  3497 ;; Defined at:
  3498 ;;		line 189 in file "ECU_layer/LCD/ecu_lcd.c"
  3499 ;; Parameters:    Size  Location     Type
  3500 ;;  lcd             1   19[COMRAM] PTR const struct .
  3501 ;;		 -> lcd_obj(10), 
  3502 ;; Auto vars:     Size  Location     Type
  3503 ;;  ret             1   21[COMRAM] unsigned char 
  3504 ;; Return value:  Size  Location     Type
  3505 ;;                  1    wreg      unsigned char 
  3506 ;; Registers used:
  3507 ;;		wreg, fsr2l, fsr2h, status,2, status,0, prodl, prodh, cstack
  3508 ;; Tracked objects:
  3509 ;;		On entry : 0/0
  3510 ;;		On exit  : 0/0
  3511 ;;		Unchanged: 0/0
  3512 ;; Data sizes:     COMRAM   BANK0   BANK1   BANK2   BANK3   BANK4   BANK5   BANK6   BANK7   BANK8   BANK9  BANK10  BANK1
      +1  BANK12  BANK13  BANK14  BANK15
  3513 ;;      Params:         1       0       0       0       0       0       0       0       0       0       0       0       
      +0       0       0       0       0
  3514 ;;      Locals:         1       0       0       0       0       0       0       0       0       0       0       0       
      +0       0       0       0       0
  3515 ;;      Temps:          1       0       0       0       0       0       0       0       0       0       0       0       
      +0       0       0       0       0
  3516 ;;      Totals:         3       0       0       0       0       0       0       0       0       0       0       0       
      +0       0       0       0       0
  3517 ;;Total ram usage:        3 bytes
  3518 ;; Hardware stack levels used: 1
  3519 ;; Hardware stack levels required when called: 6
  3520 ;; This function calls:
  3521 ;;		_gpio_pin_direction_init
  3522 ;;		_gpio_pin_write_logic
  3523 ;;		_lcd_8bit_send_command
  3524 ;; This function is called by:
  3525 ;;		_main
  3526 ;; This function uses a non-reentrant model
  3527 ;;
  3528                           
  3529                           	psect	text8
  3530   001FBA                     __ptext8:
  3531                           	callstack 0
  3532   001FBA                     _lcd_8bit_init:
  3533                           	callstack 24
  3534   001FBA                     
  3535                           ;ECU_layer/LCD/ecu_lcd.c: 191:     if(((void*)0) == lcd){
  3536   001FBA  5068               	movf	lcd_8bit_init@lcd^0,w,c
  3537   001FBC  A4D8               	btfss	status,2,c
  3538   001FBE  EFE3  F00F         	goto	u3261
  3539   001FC2  EFE5  F00F         	goto	u3260
  3540   001FC6                     u3261:
  3541   001FC6  EFE9  F00F         	goto	l3661
  3542   001FCA                     u3260:
  3543   001FCA                     
  3544                           ;ECU_layer/LCD/ecu_lcd.c: 192:         ret = (Std_ReturnType)0x00;
  3545   001FCA  0E00               	movlw	0
  3546   001FCC  6E6A               	movwf	lcd_8bit_init@ret^0,c
  3547                           
  3548                           ;ECU_layer/LCD/ecu_lcd.c: 193:     }
  3549   001FCE  EF03  F011         	goto	l3671
  3550   001FD2                     l3661:
  3551                           
  3552                           ;ECU_layer/LCD/ecu_lcd.c: 195:       ret= gpio_pin_direction_init(&(lcd->lcd_rs));
  3553   001FD2  C068  F058         	movff	lcd_8bit_init@lcd,gpio_pin_direction_init@_pin_config
  3554   001FD6  EC05  F011         	call	_gpio_pin_direction_init	;wreg free
  3555   001FDA  6E6A               	movwf	lcd_8bit_init@ret^0,c
  3556                           
  3557                           ;ECU_layer/LCD/ecu_lcd.c: 196:       ret= gpio_pin_write_logic(&(lcd->lcd_rs),lcd->lcd_r
      +                          s.logic);
  3558   001FDC  C068  F058         	movff	lcd_8bit_init@lcd,gpio_pin_write_logic@_pin_config
  3559   001FE0  5068               	movf	lcd_8bit_init@lcd^0,w,c
  3560   001FE2  6ED9               	movwf	fsr2l,c
  3561   001FE4  6ADA               	clrf	fsr2h,c
  3562   001FE6  0E00               	movlw	0
  3563   001FE8  BEDF               	btfsc	indf2,7,c
  3564   001FEA  0E01               	movlw	1
  3565   001FEC  6E59               	movwf	gpio_pin_write_logic@logic^0,c
  3566   001FEE  EC98  F011         	call	_gpio_pin_write_logic	;wreg free
  3567   001FF2  6E6A               	movwf	lcd_8bit_init@ret^0,c
  3568                           
  3569                           ;ECU_layer/LCD/ecu_lcd.c: 197:       ret= gpio_pin_direction_init(&(lcd->lcd_en));
  3570   001FF4  2868               	incf	lcd_8bit_init@lcd^0,w,c
  3571   001FF6  6E58               	movwf	gpio_pin_direction_init@_pin_config^0,c
  3572   001FF8  EC05  F011         	call	_gpio_pin_direction_init	;wreg free
  3573   001FFC  6E6A               	movwf	lcd_8bit_init@ret^0,c
  3574                           
  3575                           ;ECU_layer/LCD/ecu_lcd.c: 198:       ret= gpio_pin_write_logic(&(lcd->lcd_en),lcd->lcd_e
      +                          n.logic);
  3576   001FFE  2868               	incf	lcd_8bit_init@lcd^0,w,c
  3577   002000  6E58               	movwf	gpio_pin_write_logic@_pin_config^0,c
  3578   002002  5068               	movf	lcd_8bit_init@lcd^0,w,c
  3579   002004  6ED9               	movwf	fsr2l,c
  3580   002006  6ADA               	clrf	fsr2h,c
  3581   002008  0E01               	movlw	1
  3582   00200A  26D9               	addwf	fsr2l,f,c
  3583   00200C  0E00               	movlw	0
  3584   00200E  BEDF               	btfsc	indf2,7,c
  3585   002010  0E01               	movlw	1
  3586   002012  6E59               	movwf	gpio_pin_write_logic@logic^0,c
  3587   002014  EC98  F011         	call	_gpio_pin_write_logic	;wreg free
  3588   002018  6E6A               	movwf	lcd_8bit_init@ret^0,c
  3589                           
  3590                           ;ECU_layer/LCD/ecu_lcd.c: 199:       ret= gpio_pin_direction_init(&(lcd->lcd_data[0]));
  3591   00201A  5068               	movf	lcd_8bit_init@lcd^0,w,c
  3592   00201C  0F02               	addlw	2
  3593   00201E  6E58               	movwf	gpio_pin_direction_init@_pin_config^0,c
  3594   002020  EC05  F011         	call	_gpio_pin_direction_init	;wreg free
  3595   002024  6E6A               	movwf	lcd_8bit_init@ret^0,c
  3596                           
  3597                           ;ECU_layer/LCD/ecu_lcd.c: 200:       ret= gpio_pin_direction_init(&(lcd->lcd_data[1]));
  3598   002026  5068               	movf	lcd_8bit_init@lcd^0,w,c
  3599   002028  0F03               	addlw	3
  3600   00202A  6E58               	movwf	gpio_pin_direction_init@_pin_config^0,c
  3601   00202C  EC05  F011         	call	_gpio_pin_direction_init	;wreg free
  3602   002030  6E6A               	movwf	lcd_8bit_init@ret^0,c
  3603                           
  3604                           ;ECU_layer/LCD/ecu_lcd.c: 201:       ret= gpio_pin_direction_init(&(lcd->lcd_data[2]));
  3605   002032  5068               	movf	lcd_8bit_init@lcd^0,w,c
  3606   002034  0F04               	addlw	4
  3607   002036  6E58               	movwf	gpio_pin_direction_init@_pin_config^0,c
  3608   002038  EC05  F011         	call	_gpio_pin_direction_init	;wreg free
  3609   00203C  6E6A               	movwf	lcd_8bit_init@ret^0,c
  3610                           
  3611                           ;ECU_layer/LCD/ecu_lcd.c: 202:       ret= gpio_pin_direction_init(&(lcd->lcd_data[3]));
  3612   00203E  5068               	movf	lcd_8bit_init@lcd^0,w,c
  3613   002040  0F05               	addlw	5
  3614   002042  6E58               	movwf	gpio_pin_direction_init@_pin_config^0,c
  3615   002044  EC05  F011         	call	_gpio_pin_direction_init	;wreg free
  3616   002048  6E6A               	movwf	lcd_8bit_init@ret^0,c
  3617                           
  3618                           ;ECU_layer/LCD/ecu_lcd.c: 203:       ret= gpio_pin_direction_init(&(lcd->lcd_data[4]));
  3619   00204A  5068               	movf	lcd_8bit_init@lcd^0,w,c
  3620   00204C  0F06               	addlw	6
  3621   00204E  6E58               	movwf	gpio_pin_direction_init@_pin_config^0,c
  3622   002050  EC05  F011         	call	_gpio_pin_direction_init	;wreg free
  3623   002054  6E6A               	movwf	lcd_8bit_init@ret^0,c
  3624                           
  3625                           ;ECU_layer/LCD/ecu_lcd.c: 204:       ret= gpio_pin_direction_init(&(lcd->lcd_data[5]));
  3626   002056  5068               	movf	lcd_8bit_init@lcd^0,w,c
  3627   002058  0F07               	addlw	7
  3628   00205A  6E58               	movwf	gpio_pin_direction_init@_pin_config^0,c
  3629   00205C  EC05  F011         	call	_gpio_pin_direction_init	;wreg free
  3630   002060  6E6A               	movwf	lcd_8bit_init@ret^0,c
  3631                           
  3632                           ;ECU_layer/LCD/ecu_lcd.c: 205:       ret= gpio_pin_direction_init(&(lcd->lcd_data[6]));
  3633   002062  5068               	movf	lcd_8bit_init@lcd^0,w,c
  3634   002064  0F08               	addlw	8
  3635   002066  6E58               	movwf	gpio_pin_direction_init@_pin_config^0,c
  3636   002068  EC05  F011         	call	_gpio_pin_direction_init	;wreg free
  3637   00206C  6E6A               	movwf	lcd_8bit_init@ret^0,c
  3638                           
  3639                           ;ECU_layer/LCD/ecu_lcd.c: 206:       ret= gpio_pin_direction_init(&(lcd->lcd_data[7]));
  3640   00206E  5068               	movf	lcd_8bit_init@lcd^0,w,c
  3641   002070  0F09               	addlw	9
  3642   002072  6E58               	movwf	gpio_pin_direction_init@_pin_config^0,c
  3643   002074  EC05  F011         	call	_gpio_pin_direction_init	;wreg free
  3644   002078  6E6A               	movwf	lcd_8bit_init@ret^0,c
  3645                           
  3646                           ;ECU_layer/LCD/ecu_lcd.c: 207:       ret= gpio_pin_write_logic(&(lcd->lcd_data[0]),lcd->
      +                          lcd_data[0].logic);
  3647   00207A  5068               	movf	lcd_8bit_init@lcd^0,w,c
  3648   00207C  0F02               	addlw	2
  3649   00207E  6E58               	movwf	gpio_pin_write_logic@_pin_config^0,c
  3650   002080  5068               	movf	lcd_8bit_init@lcd^0,w,c
  3651   002082  6ED9               	movwf	fsr2l,c
  3652   002084  6ADA               	clrf	fsr2h,c
  3653   002086  0E02               	movlw	2
  3654   002088  26D9               	addwf	fsr2l,f,c
  3655   00208A  0E00               	movlw	0
  3656   00208C  BEDF               	btfsc	indf2,7,c
  3657   00208E  0E01               	movlw	1
  3658   002090  6E59               	movwf	gpio_pin_write_logic@logic^0,c
  3659   002092  EC98  F011         	call	_gpio_pin_write_logic	;wreg free
  3660   002096  6E6A               	movwf	lcd_8bit_init@ret^0,c
  3661                           
  3662                           ;ECU_layer/LCD/ecu_lcd.c: 208:       ret= gpio_pin_write_logic(&(lcd->lcd_data[1]),lcd->
      +                          lcd_data[1].logic);
  3663   002098  5068               	movf	lcd_8bit_init@lcd^0,w,c
  3664   00209A  0F03               	addlw	3
  3665   00209C  6E58               	movwf	gpio_pin_write_logic@_pin_config^0,c
  3666   00209E  5068               	movf	lcd_8bit_init@lcd^0,w,c
  3667   0020A0  6ED9               	movwf	fsr2l,c
  3668   0020A2  6ADA               	clrf	fsr2h,c
  3669   0020A4  0E03               	movlw	3
  3670   0020A6  26D9               	addwf	fsr2l,f,c
  3671   0020A8  0E00               	movlw	0
  3672   0020AA  BEDF               	btfsc	indf2,7,c
  3673   0020AC  0E01               	movlw	1
  3674   0020AE  6E59               	movwf	gpio_pin_write_logic@logic^0,c
  3675   0020B0  EC98  F011         	call	_gpio_pin_write_logic	;wreg free
  3676   0020B4  6E6A               	movwf	lcd_8bit_init@ret^0,c
  3677                           
  3678                           ;ECU_layer/LCD/ecu_lcd.c: 209:       ret= gpio_pin_write_logic(&(lcd->lcd_data[2]),lcd->
      +                          lcd_data[2].logic);
  3679   0020B6  5068               	movf	lcd_8bit_init@lcd^0,w,c
  3680   0020B8  0F04               	addlw	4
  3681   0020BA  6E58               	movwf	gpio_pin_write_logic@_pin_config^0,c
  3682   0020BC  5068               	movf	lcd_8bit_init@lcd^0,w,c
  3683   0020BE  6ED9               	movwf	fsr2l,c
  3684   0020C0  6ADA               	clrf	fsr2h,c
  3685   0020C2  0E04               	movlw	4
  3686   0020C4  26D9               	addwf	fsr2l,f,c
  3687   0020C6  0E00               	movlw	0
  3688   0020C8  BEDF               	btfsc	indf2,7,c
  3689   0020CA  0E01               	movlw	1
  3690   0020CC  6E59               	movwf	gpio_pin_write_logic@logic^0,c
  3691   0020CE  EC98  F011         	call	_gpio_pin_write_logic	;wreg free
  3692   0020D2  6E6A               	movwf	lcd_8bit_init@ret^0,c
  3693                           
  3694                           ;ECU_layer/LCD/ecu_lcd.c: 210:       ret= gpio_pin_write_logic(&(lcd->lcd_data[3]),lcd->
      +                          lcd_data[3].logic);
  3695   0020D4  5068               	movf	lcd_8bit_init@lcd^0,w,c
  3696   0020D6  0F05               	addlw	5
  3697   0020D8  6E58               	movwf	gpio_pin_write_logic@_pin_config^0,c
  3698   0020DA  5068               	movf	lcd_8bit_init@lcd^0,w,c
  3699   0020DC  6ED9               	movwf	fsr2l,c
  3700   0020DE  6ADA               	clrf	fsr2h,c
  3701   0020E0  0E05               	movlw	5
  3702   0020E2  26D9               	addwf	fsr2l,f,c
  3703   0020E4  0E00               	movlw	0
  3704   0020E6  BEDF               	btfsc	indf2,7,c
  3705   0020E8  0E01               	movlw	1
  3706   0020EA  6E59               	movwf	gpio_pin_write_logic@logic^0,c
  3707   0020EC  EC98  F011         	call	_gpio_pin_write_logic	;wreg free
  3708   0020F0  6E6A               	movwf	lcd_8bit_init@ret^0,c
  3709                           
  3710                           ;ECU_layer/LCD/ecu_lcd.c: 211:       ret= gpio_pin_write_logic(&(lcd->lcd_data[4]),lcd->
      +                          lcd_data[4].logic);
  3711   0020F2  5068               	movf	lcd_8bit_init@lcd^0,w,c
  3712   0020F4  0F06               	addlw	6
  3713   0020F6  6E58               	movwf	gpio_pin_write_logic@_pin_config^0,c
  3714   0020F8  5068               	movf	lcd_8bit_init@lcd^0,w,c
  3715   0020FA  6ED9               	movwf	fsr2l,c
  3716   0020FC  6ADA               	clrf	fsr2h,c
  3717   0020FE  0E06               	movlw	6
  3718   002100  26D9               	addwf	fsr2l,f,c
  3719   002102  0E00               	movlw	0
  3720   002104  BEDF               	btfsc	indf2,7,c
  3721   002106  0E01               	movlw	1
  3722   002108  6E59               	movwf	gpio_pin_write_logic@logic^0,c
  3723   00210A  EC98  F011         	call	_gpio_pin_write_logic	;wreg free
  3724   00210E  6E6A               	movwf	lcd_8bit_init@ret^0,c
  3725                           
  3726                           ;ECU_layer/LCD/ecu_lcd.c: 212:       ret= gpio_pin_write_logic(&(lcd->lcd_data[5]),lcd->
      +                          lcd_data[5].logic);
  3727   002110  5068               	movf	lcd_8bit_init@lcd^0,w,c
  3728   002112  0F07               	addlw	7
  3729   002114  6E58               	movwf	gpio_pin_write_logic@_pin_config^0,c
  3730   002116  5068               	movf	lcd_8bit_init@lcd^0,w,c
  3731   002118  6ED9               	movwf	fsr2l,c
  3732   00211A  6ADA               	clrf	fsr2h,c
  3733   00211C  0E07               	movlw	7
  3734   00211E  26D9               	addwf	fsr2l,f,c
  3735   002120  0E00               	movlw	0
  3736   002122  BEDF               	btfsc	indf2,7,c
  3737   002124  0E01               	movlw	1
  3738   002126  6E59               	movwf	gpio_pin_write_logic@logic^0,c
  3739   002128  EC98  F011         	call	_gpio_pin_write_logic	;wreg free
  3740   00212C  6E6A               	movwf	lcd_8bit_init@ret^0,c
  3741                           
  3742                           ;ECU_layer/LCD/ecu_lcd.c: 213:       ret= gpio_pin_write_logic(&(lcd->lcd_data[6]),lcd->
      +                          lcd_data[6].logic);
  3743   00212E  5068               	movf	lcd_8bit_init@lcd^0,w,c
  3744   002130  0F08               	addlw	8
  3745   002132  6E58               	movwf	gpio_pin_write_logic@_pin_config^0,c
  3746   002134  5068               	movf	lcd_8bit_init@lcd^0,w,c
  3747   002136  6ED9               	movwf	fsr2l,c
  3748   002138  6ADA               	clrf	fsr2h,c
  3749   00213A  0E08               	movlw	8
  3750   00213C  26D9               	addwf	fsr2l,f,c
  3751   00213E  0E00               	movlw	0
  3752   002140  BEDF               	btfsc	indf2,7,c
  3753   002142  0E01               	movlw	1
  3754   002144  6E59               	movwf	gpio_pin_write_logic@logic^0,c
  3755   002146  EC98  F011         	call	_gpio_pin_write_logic	;wreg free
  3756   00214A  6E6A               	movwf	lcd_8bit_init@ret^0,c
  3757                           
  3758                           ;ECU_layer/LCD/ecu_lcd.c: 214:       ret= gpio_pin_write_logic(&(lcd->lcd_data[7]),lcd->
      +                          lcd_data[7].logic);
  3759   00214C  5068               	movf	lcd_8bit_init@lcd^0,w,c
  3760   00214E  0F09               	addlw	9
  3761   002150  6E58               	movwf	gpio_pin_write_logic@_pin_config^0,c
  3762   002152  5068               	movf	lcd_8bit_init@lcd^0,w,c
  3763   002154  6ED9               	movwf	fsr2l,c
  3764   002156  6ADA               	clrf	fsr2h,c
  3765   002158  0E09               	movlw	9
  3766   00215A  26D9               	addwf	fsr2l,f,c
  3767   00215C  0E00               	movlw	0
  3768   00215E  BEDF               	btfsc	indf2,7,c
  3769   002160  0E01               	movlw	1
  3770   002162  6E59               	movwf	gpio_pin_write_logic@logic^0,c
  3771   002164  EC98  F011         	call	_gpio_pin_write_logic	;wreg free
  3772   002168  6E6A               	movwf	lcd_8bit_init@ret^0,c
  3773   00216A                     
  3774                           ;ECU_layer/LCD/ecu_lcd.c: 216:       _delay((unsigned long)((20)*(8000000UL/4000.0)));
  3775   00216A  0E34               	movlw	52
  3776   00216C  6E69               	movwf	??_lcd_8bit_init^0,c
  3777   00216E  0EF2               	movlw	242
  3778   002170                     u5937:
  3779   002170  2EE8               	decfsz	wreg,f,c
  3780   002172  D7FE               	bra	u5937
  3781   002174  2E69               	decfsz	??_lcd_8bit_init^0,f,c
  3782   002176  D7FC               	bra	u5937
  3783   002178  C068  F062         	movff	lcd_8bit_init@lcd,lcd_8bit_send_command@lcd
  3784   00217C  0E38               	movlw	56
  3785   00217E  6E63               	movwf	lcd_8bit_send_command@command^0,c
  3786   002180  EC52  F015         	call	_lcd_8bit_send_command	;wreg free
  3787                           
  3788                           ;ECU_layer/LCD/ecu_lcd.c: 218:       _delay((unsigned long)((5)*(8000000UL/4000.0)));
  3789   002184  0E0D               	movlw	13
  3790   002186  6E69               	movwf	??_lcd_8bit_init^0,c
  3791   002188  0EFC               	movlw	252
  3792   00218A                     u5947:
  3793   00218A  2EE8               	decfsz	wreg,f,c
  3794   00218C  D7FE               	bra	u5947
  3795   00218E  2E69               	decfsz	??_lcd_8bit_init^0,f,c
  3796   002190  D7FC               	bra	u5947
  3797   002192  C068  F062         	movff	lcd_8bit_init@lcd,lcd_8bit_send_command@lcd
  3798   002196  0E38               	movlw	56
  3799   002198  6E63               	movwf	lcd_8bit_send_command@command^0,c
  3800   00219A  EC52  F015         	call	_lcd_8bit_send_command	;wreg free
  3801   00219E                     
  3802                           ;ECU_layer/LCD/ecu_lcd.c: 220:        _delay((unsigned long)((150)*(8000000UL/4000000.0)
      +                          ));
  3803   00219E  0E64               	movlw	100
  3804   0021A0                     u5957:
  3805   0021A0  2EE8               	decfsz	wreg,f,c
  3806   0021A2  D7FE               	bra	u5957
  3807                           
  3808                           ;ECU_layer/LCD/ecu_lcd.c: 221:       ret = lcd_8bit_send_command(lcd,0x38);
  3809   0021A4  C068  F062         	movff	lcd_8bit_init@lcd,lcd_8bit_send_command@lcd
  3810   0021A8  0E38               	movlw	56
  3811   0021AA  6E63               	movwf	lcd_8bit_send_command@command^0,c
  3812   0021AC  EC52  F015         	call	_lcd_8bit_send_command	;wreg free
  3813   0021B0  6E6A               	movwf	lcd_8bit_init@ret^0,c
  3814                           
  3815                           ;ECU_layer/LCD/ecu_lcd.c: 222:       ret = lcd_8bit_send_command(lcd,0x01);
  3816   0021B2  C068  F062         	movff	lcd_8bit_init@lcd,lcd_8bit_send_command@lcd
  3817   0021B6  0E01               	movlw	1
  3818   0021B8  6E63               	movwf	lcd_8bit_send_command@command^0,c
  3819   0021BA  EC52  F015         	call	_lcd_8bit_send_command	;wreg free
  3820   0021BE  6E6A               	movwf	lcd_8bit_init@ret^0,c
  3821                           
  3822                           ;ECU_layer/LCD/ecu_lcd.c: 223:       ret = lcd_8bit_send_command(lcd,0x02);
  3823   0021C0  C068  F062         	movff	lcd_8bit_init@lcd,lcd_8bit_send_command@lcd
  3824   0021C4  0E02               	movlw	2
  3825   0021C6  6E63               	movwf	lcd_8bit_send_command@command^0,c
  3826   0021C8  EC52  F015         	call	_lcd_8bit_send_command	;wreg free
  3827   0021CC  6E6A               	movwf	lcd_8bit_init@ret^0,c
  3828                           
  3829                           ;ECU_layer/LCD/ecu_lcd.c: 224:       ret = lcd_8bit_send_command(lcd,0x06);
  3830   0021CE  C068  F062         	movff	lcd_8bit_init@lcd,lcd_8bit_send_command@lcd
  3831   0021D2  0E06               	movlw	6
  3832   0021D4  6E63               	movwf	lcd_8bit_send_command@command^0,c
  3833   0021D6  EC52  F015         	call	_lcd_8bit_send_command	;wreg free
  3834   0021DA  6E6A               	movwf	lcd_8bit_init@ret^0,c
  3835                           
  3836                           ;ECU_layer/LCD/ecu_lcd.c: 225:       ret = lcd_8bit_send_command(lcd,0x0C);
  3837   0021DC  C068  F062         	movff	lcd_8bit_init@lcd,lcd_8bit_send_command@lcd
  3838   0021E0  0E0C               	movlw	12
  3839   0021E2  6E63               	movwf	lcd_8bit_send_command@command^0,c
  3840   0021E4  EC52  F015         	call	_lcd_8bit_send_command	;wreg free
  3841   0021E8  6E6A               	movwf	lcd_8bit_init@ret^0,c
  3842                           
  3843                           ;ECU_layer/LCD/ecu_lcd.c: 226:       ret = lcd_8bit_send_command(lcd,0x38);
  3844   0021EA  C068  F062         	movff	lcd_8bit_init@lcd,lcd_8bit_send_command@lcd
  3845   0021EE  0E38               	movlw	56
  3846   0021F0  6E63               	movwf	lcd_8bit_send_command@command^0,c
  3847   0021F2  EC52  F015         	call	_lcd_8bit_send_command	;wreg free
  3848   0021F6  6E6A               	movwf	lcd_8bit_init@ret^0,c
  3849                           
  3850                           ;ECU_layer/LCD/ecu_lcd.c: 227:       ret = lcd_8bit_send_command(lcd,0x80);
  3851   0021F8  C068  F062         	movff	lcd_8bit_init@lcd,lcd_8bit_send_command@lcd
  3852   0021FC  0E80               	movlw	128
  3853   0021FE  6E63               	movwf	lcd_8bit_send_command@command^0,c
  3854   002200  EC52  F015         	call	_lcd_8bit_send_command	;wreg free
  3855   002204  6E6A               	movwf	lcd_8bit_init@ret^0,c
  3856   002206                     l3671:
  3857                           
  3858                           ;ECU_layer/LCD/ecu_lcd.c: 230:     return ret ;
  3859   002206  506A               	movf	lcd_8bit_init@ret^0,w,c
  3860   002208  0012               	return		;funcret
  3861   00220A                     __end_of_lcd_8bit_init:
  3862                           	callstack 0
  3863                           
  3864 ;; *************** function _lcd_8bit_send_command *****************
  3865 ;; Defined at:
  3866 ;;		line 238 in file "ECU_layer/LCD/ecu_lcd.c"
  3867 ;; Parameters:    Size  Location     Type
  3868 ;;  lcd             1   13[COMRAM] PTR const struct .
  3869 ;;		 -> lcd_obj(10), 
  3870 ;;  command         1   14[COMRAM] unsigned char 
  3871 ;; Auto vars:     Size  Location     Type
  3872 ;;  count           1   18[COMRAM] unsigned char 
  3873 ;;  ret             1   17[COMRAM] unsigned char 
  3874 ;; Return value:  Size  Location     Type
  3875 ;;                  1    wreg      unsigned char 
  3876 ;; Registers used:
  3877 ;;		wreg, fsr2l, fsr2h, status,2, status,0, prodl, prodh, cstack
  3878 ;; Tracked objects:
  3879 ;;		On entry : 0/0
  3880 ;;		On exit  : 0/0
  3881 ;;		Unchanged: 0/0
  3882 ;; Data sizes:     COMRAM   BANK0   BANK1   BANK2   BANK3   BANK4   BANK5   BANK6   BANK7   BANK8   BANK9  BANK10  BANK1
      +1  BANK12  BANK13  BANK14  BANK15
  3883 ;;      Params:         2       0       0       0       0       0       0       0       0       0       0       0       
      +0       0       0       0       0
  3884 ;;      Locals:         2       0       0       0       0       0       0       0       0       0       0       0       
      +0       0       0       0       0
  3885 ;;      Temps:          2       0       0       0       0       0       0       0       0       0       0       0       
      +0       0       0       0       0
  3886 ;;      Totals:         6       0       0       0       0       0       0       0       0       0       0       0       
      +0       0       0       0       0
  3887 ;;Total ram usage:        6 bytes
  3888 ;; Hardware stack levels used: 1
  3889 ;; Hardware stack levels required when called: 5
  3890 ;; This function calls:
  3891 ;;		_gpio_pin_write_logic
  3892 ;;		_lcd_8bit_send_enable
  3893 ;; This function is called by:
  3894 ;;		_main
  3895 ;;		_lcd_8bit_init
  3896 ;;		_lcd_8bit_send_custom_char
  3897 ;;		_lcd_8bit_set_cursor
  3898 ;; This function uses a non-reentrant model
  3899 ;;
  3900                           
  3901                           	psect	text9
  3902   002AA4                     __ptext9:
  3903                           	callstack 0
  3904   002AA4                     _lcd_8bit_send_command:
  3905                           	callstack 23
  3906   002AA4                     
  3907                           ;ECU_layer/LCD/ecu_lcd.c: 240:     uint8 count=0;
  3908   002AA4  0E00               	movlw	0
  3909   002AA6  6E67               	movwf	lcd_8bit_send_command@count^0,c
  3910                           
  3911                           ;ECU_layer/LCD/ecu_lcd.c: 241:     if(((void*)0) == lcd){
  3912   002AA8  5062               	movf	lcd_8bit_send_command@lcd^0,w,c
  3913   002AAA  A4D8               	btfss	status,2,c
  3914   002AAC  EF5A  F015         	goto	u2941
  3915   002AB0  EF5C  F015         	goto	u2940
  3916   002AB4                     u2941:
  3917   002AB4  EF60  F015         	goto	l3451
  3918   002AB8                     u2940:
  3919   002AB8                     
  3920                           ;ECU_layer/LCD/ecu_lcd.c: 242:         ret = (Std_ReturnType)0x00;
  3921   002AB8  0E00               	movlw	0
  3922   002ABA  6E66               	movwf	lcd_8bit_send_command@ret^0,c
  3923                           
  3924                           ;ECU_layer/LCD/ecu_lcd.c: 243:     }
  3925   002ABC  EF8B  F015         	goto	l3467
  3926   002AC0                     l3451:
  3927   002AC0  C062  F058         	movff	lcd_8bit_send_command@lcd,gpio_pin_write_logic@_pin_config
  3928   002AC4  0E00               	movlw	0
  3929   002AC6  6E59               	movwf	gpio_pin_write_logic@logic^0,c
  3930   002AC8  EC98  F011         	call	_gpio_pin_write_logic	;wreg free
  3931   002ACC                     
  3932                           ;ECU_layer/LCD/ecu_lcd.c: 246:         for(count =0 ; count < 8 ; count ++){
  3933   002ACC  0E00               	movlw	0
  3934   002ACE  6E67               	movwf	lcd_8bit_send_command@count^0,c
  3935   002AD0                     l3459:
  3936                           
  3937                           ;ECU_layer/LCD/ecu_lcd.c: 247:             gpio_pin_write_logic(&(lcd->lcd_data[count]) 
      +                          , (command >> count) & (uint8)0x01);
  3938   002AD0  5062               	movf	lcd_8bit_send_command@lcd^0,w,c
  3939   002AD2  2467               	addwf	lcd_8bit_send_command@count^0,w,c
  3940   002AD4  0F02               	addlw	2
  3941   002AD6  6E58               	movwf	gpio_pin_write_logic@_pin_config^0,c
  3942   002AD8  C067  F064         	movff	lcd_8bit_send_command@count,??_lcd_8bit_send_command
  3943   002ADC  C063  F065         	movff	lcd_8bit_send_command@command,??_lcd_8bit_send_command+1
  3944   002AE0  2A64               	incf	??_lcd_8bit_send_command^0,f,c
  3945   002AE2  EF75  F015         	goto	u2954
  3946   002AE6                     u2955:
  3947   002AE6  90D8               	bcf	status,0,c
  3948   002AE8  3265               	rrcf	(??_lcd_8bit_send_command+1)^0,f,c
  3949   002AEA                     u2954:
  3950   002AEA  2E64               	decfsz	??_lcd_8bit_send_command^0,f,c
  3951   002AEC  EF73  F015         	goto	u2955
  3952   002AF0  5065               	movf	(??_lcd_8bit_send_command+1)^0,w,c
  3953   002AF2  0B01               	andlw	1
  3954   002AF4  6E59               	movwf	gpio_pin_write_logic@logic^0,c
  3955   002AF6  EC98  F011         	call	_gpio_pin_write_logic	;wreg free
  3956   002AFA                     
  3957                           ;ECU_layer/LCD/ecu_lcd.c: 248:         }
  3958   002AFA  2A67               	incf	lcd_8bit_send_command@count^0,f,c
  3959   002AFC  0E07               	movlw	7
  3960   002AFE  6467               	cpfsgt	lcd_8bit_send_command@count^0,c
  3961   002B00  EF84  F015         	goto	u2961
  3962   002B04  EF86  F015         	goto	u2960
  3963   002B08                     u2961:
  3964   002B08  EF68  F015         	goto	l3459
  3965   002B0C                     u2960:
  3966   002B0C                     
  3967                           ;ECU_layer/LCD/ecu_lcd.c: 249:         ret = lcd_8bit_send_enable(lcd);
  3968   002B0C  C062  F060         	movff	lcd_8bit_send_command@lcd,lcd_8bit_send_enable@lcd
  3969   002B10  EC76  F016         	call	_lcd_8bit_send_enable	;wreg free
  3970   002B14  6E66               	movwf	lcd_8bit_send_command@ret^0,c
  3971   002B16                     l3467:
  3972                           
  3973                           ;ECU_layer/LCD/ecu_lcd.c: 251:     return ret ;
  3974   002B16  5066               	movf	lcd_8bit_send_command@ret^0,w,c
  3975   002B18  0012               	return		;funcret
  3976   002B1A                     __end_of_lcd_8bit_send_command:
  3977                           	callstack 0
  3978                           
  3979 ;; *************** function _lcd_8bit_send_enable *****************
  3980 ;; Defined at:
  3981 ;;		line 447 in file "ECU_layer/LCD/ecu_lcd.c"
  3982 ;; Parameters:    Size  Location     Type
  3983 ;;  lcd             1   11[COMRAM] PTR const struct .
  3984 ;;		 -> lcd_obj(10), 
  3985 ;; Auto vars:     Size  Location     Type
  3986 ;;  ret             1   12[COMRAM] unsigned char 
  3987 ;; Return value:  Size  Location     Type
  3988 ;;                  1    wreg      unsigned char 
  3989 ;; Registers used:
  3990 ;;		wreg, fsr2l, fsr2h, status,2, status,0, prodl, prodh, cstack
  3991 ;; Tracked objects:
  3992 ;;		On entry : 0/0
  3993 ;;		On exit  : 0/0
  3994 ;;		Unchanged: 0/0
  3995 ;; Data sizes:     COMRAM   BANK0   BANK1   BANK2   BANK3   BANK4   BANK5   BANK6   BANK7   BANK8   BANK9  BANK10  BANK1
      +1  BANK12  BANK13  BANK14  BANK15
  3996 ;;      Params:         1       0       0       0       0       0       0       0       0       0       0       0       
      +0       0       0       0       0
  3997 ;;      Locals:         1       0       0       0       0       0       0       0       0       0       0       0       
      +0       0       0       0       0
  3998 ;;      Temps:          0       0       0       0       0       0       0       0       0       0       0       0       
      +0       0       0       0       0
  3999 ;;      Totals:         2       0       0       0       0       0       0       0       0       0       0       0       
      +0       0       0       0       0
  4000 ;;Total ram usage:        2 bytes
  4001 ;; Hardware stack levels used: 1
  4002 ;; Hardware stack levels required when called: 4
  4003 ;; This function calls:
  4004 ;;		_gpio_pin_write_logic
  4005 ;; This function is called by:
  4006 ;;		_lcd_8bit_send_command
  4007 ;;		_lcd_8bit_send_char_data
  4008 ;; This function uses a non-reentrant model
  4009 ;;
  4010                           
  4011                           	psect	text10
  4012   002CEC                     __ptext10:
  4013                           	callstack 0
  4014   002CEC                     _lcd_8bit_send_enable:
  4015                           	callstack 23
  4016   002CEC                     
  4017                           ;ECU_layer/LCD/ecu_lcd.c: 449:     if(((void*)0) == lcd){
  4018   002CEC  5060               	movf	lcd_8bit_send_enable@lcd^0,w,c
  4019   002CEE  A4D8               	btfss	status,2,c
  4020   002CF0  EF7C  F016         	goto	u2931
  4021   002CF4  EF7E  F016         	goto	u2930
  4022   002CF8                     u2931:
  4023   002CF8  EF82  F016         	goto	l3437
  4024   002CFC                     u2930:
  4025   002CFC                     
  4026                           ;ECU_layer/LCD/ecu_lcd.c: 450:         ret = (Std_ReturnType)0x00;
  4027   002CFC  0E00               	movlw	0
  4028   002CFE  6E61               	movwf	lcd_8bit_send_enable@ret^0,c
  4029                           
  4030                           ;ECU_layer/LCD/ecu_lcd.c: 451:     }
  4031   002D00  EF93  F016         	goto	l3443
  4032   002D04                     l3437:
  4033   002D04  2860               	incf	lcd_8bit_send_enable@lcd^0,w,c
  4034   002D06  6E58               	movwf	gpio_pin_write_logic@_pin_config^0,c
  4035   002D08  0E01               	movlw	1
  4036   002D0A  6E59               	movwf	gpio_pin_write_logic@logic^0,c
  4037   002D0C  EC98  F011         	call	_gpio_pin_write_logic	;wreg free
  4038   002D10                     
  4039                           ;ECU_layer/LCD/ecu_lcd.c: 454:         _delay((unsigned long)((5)*(8000000UL/4000000.0))
      +                          );
  4040   002D10  0E03               	movlw	3
  4041   002D12                     u5967:
  4042   002D12  2EE8               	decfsz	wreg,f,c
  4043   002D14  D7FE               	bra	u5967
  4044   002D16  0000               	nop	
  4045   002D18                     
  4046                           ;ECU_layer/LCD/ecu_lcd.c: 455:         ret = gpio_pin_write_logic(&(lcd->lcd_en),LOW);
  4047   002D18  2860               	incf	lcd_8bit_send_enable@lcd^0,w,c
  4048   002D1A  6E58               	movwf	gpio_pin_write_logic@_pin_config^0,c
  4049   002D1C  0E00               	movlw	0
  4050   002D1E  6E59               	movwf	gpio_pin_write_logic@logic^0,c
  4051   002D20  EC98  F011         	call	_gpio_pin_write_logic	;wreg free
  4052   002D24  6E61               	movwf	lcd_8bit_send_enable@ret^0,c
  4053   002D26                     l3443:
  4054                           
  4055                           ;ECU_layer/LCD/ecu_lcd.c: 457:     return ret ;
  4056   002D26  5061               	movf	lcd_8bit_send_enable@ret^0,w,c
  4057   002D28  0012               	return		;funcret
  4058   002D2A                     __end_of_lcd_8bit_send_enable:
  4059                           	callstack 0
  4060                           
  4061 ;; *************** function _keypad_init *****************
  4062 ;; Defined at:
  4063 ;;		line 19 in file "ECU_layer/KEYPAD/ecu_keypad.c"
  4064 ;; Parameters:    Size  Location     Type
  4065 ;;  keypad_obj      1   11[COMRAM] PTR const struct .
  4066 ;;		 -> keypad_obj(8), 
  4067 ;; Auto vars:     Size  Location     Type
  4068 ;;  r_counter       1   14[COMRAM] unsigned char 
  4069 ;;  c_counter       1   13[COMRAM] unsigned char 
  4070 ;;  ret             1   12[COMRAM] unsigned char 
  4071 ;; Return value:  Size  Location     Type
  4072 ;;                  1    wreg      unsigned char 
  4073 ;; Registers used:
  4074 ;;		wreg, fsr2l, fsr2h, status,2, status,0, prodl, prodh, cstack
  4075 ;; Tracked objects:
  4076 ;;		On entry : 0/0
  4077 ;;		On exit  : 0/0
  4078 ;;		Unchanged: 0/0
  4079 ;; Data sizes:     COMRAM   BANK0   BANK1   BANK2   BANK3   BANK4   BANK5   BANK6   BANK7   BANK8   BANK9  BANK10  BANK1
      +1  BANK12  BANK13  BANK14  BANK15
  4080 ;;      Params:         1       0       0       0       0       0       0       0       0       0       0       0       
      +0       0       0       0       0
  4081 ;;      Locals:         3       0       0       0       0       0       0       0       0       0       0       0       
      +0       0       0       0       0
  4082 ;;      Temps:          0       0       0       0       0       0       0       0       0       0       0       0       
      +0       0       0       0       0
  4083 ;;      Totals:         4       0       0       0       0       0       0       0       0       0       0       0       
      +0       0       0       0       0
  4084 ;;Total ram usage:        4 bytes
  4085 ;; Hardware stack levels used: 1
  4086 ;; Hardware stack levels required when called: 4
  4087 ;; This function calls:
  4088 ;;		_gpio_pin_direction_init
  4089 ;;		_gpio_pin_write_logic
  4090 ;; This function is called by:
  4091 ;;		_main
  4092 ;; This function uses a non-reentrant model
  4093 ;;
  4094                           
  4095                           	psect	text11
  4096   00292C                     __ptext11:
  4097                           	callstack 0
  4098   00292C                     _keypad_init:
  4099                           	callstack 26
  4100   00292C                     
  4101                           ;ECU_layer/KEYPAD/ecu_keypad.c: 21:   uint8 r_counter=0 , c_counter=0;
  4102   00292C  0E00               	movlw	0
  4103   00292E  6E63               	movwf	keypad_init@r_counter^0,c
  4104   002930  0E00               	movlw	0
  4105   002932  6E62               	movwf	keypad_init@c_counter^0,c
  4106                           
  4107                           ;ECU_layer/KEYPAD/ecu_keypad.c: 22:   if(((void*)0) == keypad_obj){
  4108   002934  5060               	movf	keypad_init@keypad_obj^0,w,c
  4109   002936  A4D8               	btfss	status,2,c
  4110   002938  EFA0  F014         	goto	u3271
  4111   00293C  EFA2  F014         	goto	u3270
  4112   002940                     u3271:
  4113   002940  EFA6  F014         	goto	l3679
  4114   002944                     u3270:
  4115   002944                     
  4116                           ;ECU_layer/KEYPAD/ecu_keypad.c: 23:       ret = (Std_ReturnType)0x00;
  4117   002944  0E00               	movlw	0
  4118   002946  6E61               	movwf	keypad_init@ret^0,c
  4119                           
  4120                           ;ECU_layer/KEYPAD/ecu_keypad.c: 24:   }
  4121   002948  EFD7  F014         	goto	l3703
  4122   00294C                     l3679:
  4123                           
  4124                           ;ECU_layer/KEYPAD/ecu_keypad.c: 26:       for(r_counter = 0 ; r_counter <4 ;r_counter++)
      +                          {
  4125   00294C  0E00               	movlw	0
  4126   00294E  6E63               	movwf	keypad_init@r_counter^0,c
  4127   002950                     l3685:
  4128                           
  4129                           ;ECU_layer/KEYPAD/ecu_keypad.c: 27:           ret = gpio_pin_direction_init(&(keypad_obj
      +                          ->keypad_r_pins[r_counter]));
  4130   002950  5060               	movf	keypad_init@keypad_obj^0,w,c
  4131   002952  2463               	addwf	keypad_init@r_counter^0,w,c
  4132   002954  6E58               	movwf	gpio_pin_direction_init@_pin_config^0,c
  4133   002956  EC05  F011         	call	_gpio_pin_direction_init	;wreg free
  4134   00295A  6E61               	movwf	keypad_init@ret^0,c
  4135                           
  4136                           ;ECU_layer/KEYPAD/ecu_keypad.c: 28:           ret = gpio_pin_write_logic(&(keypad_obj->k
      +                          eypad_r_pins[r_counter]),keypad_obj->keypad_r_pins[r_counter].logic);
  4137   00295C  5060               	movf	keypad_init@keypad_obj^0,w,c
  4138   00295E  2463               	addwf	keypad_init@r_counter^0,w,c
  4139   002960  6E58               	movwf	gpio_pin_write_logic@_pin_config^0,c
  4140   002962  5060               	movf	keypad_init@keypad_obj^0,w,c
  4141   002964  2463               	addwf	keypad_init@r_counter^0,w,c
  4142   002966  6ED9               	movwf	fsr2l,c
  4143   002968  6ADA               	clrf	fsr2h,c
  4144   00296A  0E00               	movlw	0
  4145   00296C  BEDF               	btfsc	indf2,7,c
  4146   00296E  0E01               	movlw	1
  4147   002970  6E59               	movwf	gpio_pin_write_logic@logic^0,c
  4148   002972  EC98  F011         	call	_gpio_pin_write_logic	;wreg free
  4149   002976  6E61               	movwf	keypad_init@ret^0,c
  4150   002978                     
  4151                           ;ECU_layer/KEYPAD/ecu_keypad.c: 30:       }
  4152   002978  2A63               	incf	keypad_init@r_counter^0,f,c
  4153   00297A  0E03               	movlw	3
  4154   00297C  6463               	cpfsgt	keypad_init@r_counter^0,c
  4155   00297E  EFC3  F014         	goto	u3281
  4156   002982  EFC5  F014         	goto	u3280
  4157   002986                     u3281:
  4158   002986  EFA8  F014         	goto	l3685
  4159   00298A                     u3280:
  4160   00298A                     
  4161                           ;ECU_layer/KEYPAD/ecu_keypad.c: 31:       for(c_counter = 0 ; c_counter <4 ;c_counter++ 
      +                          ){
  4162   00298A  0E00               	movlw	0
  4163   00298C  6E62               	movwf	keypad_init@c_counter^0,c
  4164   00298E                     l3697:
  4165                           
  4166                           ;ECU_layer/KEYPAD/ecu_keypad.c: 32:           ret = gpio_pin_direction_init(&(keypad_obj
      +                          ->keypad_c_pins[c_counter]));
  4167   00298E  5060               	movf	keypad_init@keypad_obj^0,w,c
  4168   002990  2462               	addwf	keypad_init@c_counter^0,w,c
  4169   002992  0F04               	addlw	4
  4170   002994  6E58               	movwf	gpio_pin_direction_init@_pin_config^0,c
  4171   002996  EC05  F011         	call	_gpio_pin_direction_init	;wreg free
  4172   00299A  6E61               	movwf	keypad_init@ret^0,c
  4173   00299C                     
  4174                           ;ECU_layer/KEYPAD/ecu_keypad.c: 33:       }
  4175   00299C  2A62               	incf	keypad_init@c_counter^0,f,c
  4176   00299E  0E03               	movlw	3
  4177   0029A0  6462               	cpfsgt	keypad_init@c_counter^0,c
  4178   0029A2  EFD5  F014         	goto	u3291
  4179   0029A6  EFD7  F014         	goto	u3290
  4180   0029AA                     u3291:
  4181   0029AA  EFC7  F014         	goto	l3697
  4182   0029AE                     u3290:
  4183   0029AE                     l3703:
  4184                           
  4185                           ;ECU_layer/KEYPAD/ecu_keypad.c: 35:   return ret;
  4186   0029AE  5061               	movf	keypad_init@ret^0,w,c
  4187   0029B0  0012               	return		;funcret
  4188   0029B2                     __end_of_keypad_init:
  4189                           	callstack 0
  4190                           
  4191 ;; *************** function _gpio_pin_direction_init *****************
  4192 ;; Defined at:
  4193 ;;		line 30 in file "MCAL_layer/GPIO/hal_gpio.c"
  4194 ;; Parameters:    Size  Location     Type
  4195 ;;  _pin_config     1    3[COMRAM] PTR const struct .
  4196 ;;		 -> seven_seg_obj$segment_pin(4), seven_seg_obj(5), keypad_obj$keypad_c_pins(4), keypad_obj$keypad_r_pins(4), 
  4197 ;;		 -> keypad_obj(8), lcd_obj$lcd_data(8), lcd_obj(10), 
  4198 ;; Auto vars:     Size  Location     Type
  4199 ;;  ret             1    9[COMRAM] unsigned char 
  4200 ;; Return value:  Size  Location     Type
  4201 ;;                  1    wreg      unsigned char 
  4202 ;; Registers used:
  4203 ;;		wreg, fsr2l, fsr2h, status,2, status,0, prodl, prodh
  4204 ;; Tracked objects:
  4205 ;;		On entry : 0/0
  4206 ;;		On exit  : 0/0
  4207 ;;		Unchanged: 0/0
  4208 ;; Data sizes:     COMRAM   BANK0   BANK1   BANK2   BANK3   BANK4   BANK5   BANK6   BANK7   BANK8   BANK9  BANK10  BANK1
      +1  BANK12  BANK13  BANK14  BANK15
  4209 ;;      Params:         1       0       0       0       0       0       0       0       0       0       0       0       
      +0       0       0       0       0
  4210 ;;      Locals:         1       0       0       0       0       0       0       0       0       0       0       0       
      +0       0       0       0       0
  4211 ;;      Temps:          5       0       0       0       0       0       0       0       0       0       0       0       
      +0       0       0       0       0
  4212 ;;      Totals:         7       0       0       0       0       0       0       0       0       0       0       0       
      +0       0       0       0       0
  4213 ;;Total ram usage:        7 bytes
  4214 ;; Hardware stack levels used: 1
  4215 ;; Hardware stack levels required when called: 3
  4216 ;; This function calls:
  4217 ;;		Nothing
  4218 ;; This function is called by:
  4219 ;;		_keypad_init
  4220 ;;		_lcd_8bit_init
  4221 ;;		_seven_segment_init
  4222 ;;		_lcd_4bit_init
  4223 ;;		_gpio_pin_intialize
  4224 ;;		_Interrupt_RBx_Init
  4225 ;;		_Interrupt_INTx_Pin_Init
  4226 ;; This function uses a non-reentrant model
  4227 ;;
  4228                           
  4229                           	psect	text12
  4230   00220A                     __ptext12:
  4231                           	callstack 0
  4232   00220A                     _gpio_pin_direction_init:
  4233                           	callstack 26
  4234   00220A                     
  4235                           ;MCAL_layer/GPIO/hal_gpio.c: 31:     Std_ReturnType ret = (Std_ReturnType)0x01;
  4236   00220A  0E01               	movlw	1
  4237   00220C  6E5E               	movwf	gpio_pin_direction_init@ret^0,c
  4238                           
  4239                           ;MCAL_layer/GPIO/hal_gpio.c: 33:     if((((void*)0) == _pin_config) || (_pin_config->pin
      +                           > 8 -1)){
  4240   00220E  5058               	movf	gpio_pin_direction_init@_pin_config^0,w,c
  4241   002210  B4D8               	btfsc	status,2,c
  4242   002212  EF0D  F011         	goto	u3021
  4243   002216  EF0F  F011         	goto	u3020
  4244   00221A                     u3021:
  4245   00221A  EF1F  F011         	goto	l3535
  4246   00221E                     u3020:
  4247   00221E  5058               	movf	gpio_pin_direction_init@_pin_config^0,w,c
  4248   002220  6ED9               	movwf	fsr2l,c
  4249   002222  6ADA               	clrf	fsr2h,c
  4250   002224  30DF               	rrcf	223,w,c
  4251   002226  32E8               	rrcf	wreg,f,c
  4252   002228  32E8               	rrcf	wreg,f,c
  4253   00222A  0B07               	andlw	7
  4254   00222C  6E59               	movwf	??_gpio_pin_direction_init^0,c
  4255   00222E  0E07               	movlw	7
  4256   002230  6459               	cpfsgt	??_gpio_pin_direction_init^0,c
  4257   002232  EF1D  F011         	goto	u3031
  4258   002236  EF1F  F011         	goto	u3030
  4259   00223A                     u3031:
  4260   00223A  EF76  F011         	goto	l3543
  4261   00223E                     u3030:
  4262   00223E                     l3535:
  4263                           
  4264                           ;MCAL_layer/GPIO/hal_gpio.c: 34:     ret = (Std_ReturnType)0x00;
  4265   00223E  0E00               	movlw	0
  4266   002240  6E5E               	movwf	gpio_pin_direction_init@ret^0,c
  4267                           
  4268                           ;MCAL_layer/GPIO/hal_gpio.c: 36:     }
  4269   002242  EF96  F011         	goto	l3545
  4270   002246                     l3537:
  4271                           
  4272                           ;MCAL_layer/GPIO/hal_gpio.c: 40:             (*tris_reg[_pin_config->port] &= ~((uint8)1
      +                           << _pin_config->pin));
  4273   002246  5058               	movf	gpio_pin_direction_init@_pin_config^0,w,c
  4274   002248  6ED9               	movwf	fsr2l,c
  4275   00224A  6ADA               	clrf	fsr2h,c
  4276   00224C  30DF               	rrcf	223,w,c
  4277   00224E  32E8               	rrcf	wreg,f,c
  4278   002250  32E8               	rrcf	wreg,f,c
  4279   002252  0B07               	andlw	7
  4280   002254  6E59               	movwf	??_gpio_pin_direction_init^0,c
  4281   002256  0E01               	movlw	1
  4282   002258  6E5A               	movwf	(??_gpio_pin_direction_init+1)^0,c
  4283   00225A  2A59               	incf	??_gpio_pin_direction_init^0,f,c
  4284   00225C  EF32  F011         	goto	u3044
  4285   002260                     u3045:
  4286   002260  90D8               	bcf	status,0,c
  4287   002262  365A               	rlcf	(??_gpio_pin_direction_init+1)^0,f,c
  4288   002264                     u3044:
  4289   002264  2E59               	decfsz	??_gpio_pin_direction_init^0,f,c
  4290   002266  EF30  F011         	goto	u3045
  4291   00226A  505A               	movf	(??_gpio_pin_direction_init+1)^0,w,c
  4292   00226C  0AFF               	xorlw	255
  4293   00226E  6E5B               	movwf	(??_gpio_pin_direction_init+2)^0,c
  4294   002270  5058               	movf	gpio_pin_direction_init@_pin_config^0,w,c
  4295   002272  6ED9               	movwf	fsr2l,c
  4296   002274  6ADA               	clrf	fsr2h,c
  4297   002276  50DF               	movf	223,w,c
  4298   002278  0B07               	andlw	7
  4299   00227A  0D02               	mullw	2
  4300   00227C  50F3               	movf	243,w,c
  4301   00227E  0F0B               	addlw	low _tris_reg
  4302   002280  6ED9               	movwf	fsr2l,c
  4303   002282  6ADA               	clrf	fsr2h,c
  4304   002284  CFDE F05C          	movff	postinc2,??_gpio_pin_direction_init+3
  4305   002288  CFDD F05D          	movff	postdec2,??_gpio_pin_direction_init+4
  4306   00228C  C05C  FFD9         	movff	??_gpio_pin_direction_init+3,fsr2l
  4307   002290  C05D  FFDA         	movff	??_gpio_pin_direction_init+4,fsr2h
  4308   002294  505B               	movf	(??_gpio_pin_direction_init+2)^0,w,c
  4309   002296  16DF               	andwf	indf2,f,c
  4310                           
  4311                           ;MCAL_layer/GPIO/hal_gpio.c: 41:         break;
  4312   002298  EF96  F011         	goto	l3545
  4313   00229C                     l3539:
  4314                           
  4315                           ;MCAL_layer/GPIO/hal_gpio.c: 43:             (*tris_reg[_pin_config->port] |= ((uint8)1 
      +                          << _pin_config->pin));
  4316   00229C  5058               	movf	gpio_pin_direction_init@_pin_config^0,w,c
  4317   00229E  6ED9               	movwf	fsr2l,c
  4318   0022A0  6ADA               	clrf	fsr2h,c
  4319   0022A2  30DF               	rrcf	223,w,c
  4320   0022A4  32E8               	rrcf	wreg,f,c
  4321   0022A6  32E8               	rrcf	wreg,f,c
  4322   0022A8  0B07               	andlw	7
  4323   0022AA  6E59               	movwf	??_gpio_pin_direction_init^0,c
  4324   0022AC  0E01               	movlw	1
  4325   0022AE  6E5A               	movwf	(??_gpio_pin_direction_init+1)^0,c
  4326   0022B0  2A59               	incf	??_gpio_pin_direction_init^0,f,c
  4327   0022B2  EF5D  F011         	goto	u3054
  4328   0022B6                     u3055:
  4329   0022B6  90D8               	bcf	status,0,c
  4330   0022B8  365A               	rlcf	(??_gpio_pin_direction_init+1)^0,f,c
  4331   0022BA                     u3054:
  4332   0022BA  2E59               	decfsz	??_gpio_pin_direction_init^0,f,c
  4333   0022BC  EF5B  F011         	goto	u3055
  4334   0022C0  5058               	movf	gpio_pin_direction_init@_pin_config^0,w,c
  4335   0022C2  6ED9               	movwf	fsr2l,c
  4336   0022C4  6ADA               	clrf	fsr2h,c
  4337   0022C6  50DF               	movf	223,w,c
  4338   0022C8  0B07               	andlw	7
  4339   0022CA  0D02               	mullw	2
  4340   0022CC  50F3               	movf	243,w,c
  4341   0022CE  0F0B               	addlw	low _tris_reg
  4342   0022D0  6ED9               	movwf	fsr2l,c
  4343   0022D2  6ADA               	clrf	fsr2h,c
  4344   0022D4  CFDE F05B          	movff	postinc2,??_gpio_pin_direction_init+2
  4345   0022D8  CFDD F05C          	movff	postdec2,??_gpio_pin_direction_init+3
  4346   0022DC  C05B  FFD9         	movff	??_gpio_pin_direction_init+2,fsr2l
  4347   0022E0  C05C  FFDA         	movff	??_gpio_pin_direction_init+3,fsr2h
  4348   0022E4  505A               	movf	(??_gpio_pin_direction_init+1)^0,w,c
  4349   0022E6  12DF               	iorwf	indf2,f,c
  4350                           
  4351                           ;MCAL_layer/GPIO/hal_gpio.c: 44:             break;
  4352   0022E8  EF96  F011         	goto	l3545
  4353   0022EC                     l3543:
  4354   0022EC  5058               	movf	gpio_pin_direction_init@_pin_config^0,w,c
  4355   0022EE  6ED9               	movwf	fsr2l,c
  4356   0022F0  6ADA               	clrf	fsr2h,c
  4357   0022F2  BCDF               	btfsc	indf2,6,c
  4358   0022F4  EF7E  F011         	goto	u3061
  4359   0022F8  EF81  F011         	goto	u3060
  4360   0022FC                     u3061:
  4361   0022FC  0E01               	movlw	1
  4362   0022FE  EF82  F011         	goto	u3070
  4363   002302                     u3060:
  4364   002302  0E00               	movlw	0
  4365   002304                     u3070:
  4366   002304  6E59               	movwf	??_gpio_pin_direction_init^0,c
  4367   002306  6A5A               	clrf	(??_gpio_pin_direction_init+1)^0,c
  4368                           
  4369                           ; Switch on 2 bytes has been partitioned into a top level switch of size 1, and 1 sub-sw
      +                          itches
  4370                           ; Switch size 1, requested type "simple"
  4371                           ; Number of cases is 1, Range of values is 0 to 0
  4372                           ; switch strategies available:
  4373                           ; Name         Instructions Cycles
  4374                           ; simple_byte            4     3 (average)
  4375                           ;	Chosen strategy is simple_byte
  4376   002308  505A               	movf	(??_gpio_pin_direction_init+1)^0,w,c
  4377   00230A  0A00               	xorlw	0	; case 0
  4378   00230C  B4D8               	btfsc	status,2,c
  4379   00230E  EF8B  F011         	goto	l5013
  4380   002312  EF1F  F011         	goto	l3535
  4381   002316                     l5013:
  4382                           
  4383                           ; Switch size 1, requested type "simple"
  4384                           ; Number of cases is 2, Range of values is 0 to 1
  4385                           ; switch strategies available:
  4386                           ; Name         Instructions Cycles
  4387                           ; simple_byte            7     4 (average)
  4388                           ;	Chosen strategy is simple_byte
  4389   002316  5059               	movf	??_gpio_pin_direction_init^0,w,c
  4390   002318  0A00               	xorlw	0	; case 0
  4391   00231A  B4D8               	btfsc	status,2,c
  4392   00231C  EF23  F011         	goto	l3537
  4393   002320  0A01               	xorlw	1	; case 1
  4394   002322  B4D8               	btfsc	status,2,c
  4395   002324  EF4E  F011         	goto	l3539
  4396   002328  EF1F  F011         	goto	l3535
  4397   00232C                     l3545:
  4398                           
  4399                           ;MCAL_layer/GPIO/hal_gpio.c: 50:     return ret;
  4400   00232C  505E               	movf	gpio_pin_direction_init@ret^0,w,c
  4401   00232E  0012               	return		;funcret
  4402   002330                     __end_of_gpio_pin_direction_init:
  4403                           	callstack 0
  4404                           
  4405 ;; *************** function _keypad_get_value *****************
  4406 ;; Defined at:
  4407 ;;		line 43 in file "ECU_layer/KEYPAD/ecu_keypad.c"
  4408 ;; Parameters:    Size  Location     Type
  4409 ;;  keypad_obj      1   11[COMRAM] PTR const struct .
  4410 ;;		 -> keypad_obj(8), 
  4411 ;;  value           1   12[COMRAM] PTR unsigned char 
  4412 ;;		 -> keybad_value(1), 
  4413 ;; Auto vars:     Size  Location     Type
  4414 ;;  c_counter       1   17[COMRAM] unsigned char 
  4415 ;;  r_counter       1   16[COMRAM] unsigned char 
  4416 ;;  l_counter       1   15[COMRAM] unsigned char 
  4417 ;;  col_logic       1   14[COMRAM] unsigned char 
  4418 ;;  ret             1    0        unsigned char 
  4419 ;; Return value:  Size  Location     Type
  4420 ;;                  1    wreg      unsigned char 
  4421 ;; Registers used:
  4422 ;;		wreg, fsr1l, fsr1h, fsr2l, fsr2h, status,2, status,0, tblptrl, tblptrh, tblptru, prodl, prodh, cstack
  4423 ;; Tracked objects:
  4424 ;;		On entry : 0/0
  4425 ;;		On exit  : 0/0
  4426 ;;		Unchanged: 0/0
  4427 ;; Data sizes:     COMRAM   BANK0   BANK1   BANK2   BANK3   BANK4   BANK5   BANK6   BANK7   BANK8   BANK9  BANK10  BANK1
      +1  BANK12  BANK13  BANK14  BANK15
  4428 ;;      Params:         2       0       0       0       0       0       0       0       0       0       0       0       
      +0       0       0       0       0
  4429 ;;      Locals:         4       0       0       0       0       0       0       0       0       0       0       0       
      +0       0       0       0       0
  4430 ;;      Temps:          1       0       0       0       0       0       0       0       0       0       0       0       
      +0       0       0       0       0
  4431 ;;      Totals:         7       0       0       0       0       0       0       0       0       0       0       0       
      +0       0       0       0       0
  4432 ;;Total ram usage:        7 bytes
  4433 ;; Hardware stack levels used: 1
  4434 ;; Hardware stack levels required when called: 4
  4435 ;; This function calls:
  4436 ;;		_gpio_pin_read_logic
  4437 ;;		_gpio_pin_write_logic
  4438 ;; This function is called by:
  4439 ;;		_main
  4440 ;; This function uses a non-reentrant model
  4441 ;;
  4442                           
  4443                           	psect	text13
  4444   002440                     __ptext13:
  4445                           	callstack 0
  4446   002440                     _keypad_get_value:
  4447                           	callstack 26
  4448   002440                     
  4449                           ;ECU_layer/KEYPAD/ecu_keypad.c: 45:     uint8 r_counter=0 , c_counter=0, l_counter=0;
  4450   002440  0E00               	movlw	0
  4451   002442  6E65               	movwf	keypad_get_value@r_counter^0,c
  4452   002444  0E00               	movlw	0
  4453   002446  6E66               	movwf	keypad_get_value@c_counter^0,c
  4454   002448  0E00               	movlw	0
  4455   00244A  6E64               	movwf	keypad_get_value@l_counter^0,c
  4456                           
  4457                           ;ECU_layer/KEYPAD/ecu_keypad.c: 46:     uint8 col_logic=0;
  4458   00244C  0E00               	movlw	0
  4459   00244E  6E63               	movwf	keypad_get_value@col_logic^0,c
  4460                           
  4461                           ;ECU_layer/KEYPAD/ecu_keypad.c: 47:   if((((void*)0) == keypad_obj) || (((void*)0) == va
      +                          lue)){
  4462   002450  5060               	movf	keypad_get_value@keypad_obj^0,w,c
  4463   002452  B4D8               	btfsc	status,2,c
  4464   002454  EF2E  F012         	goto	u3361
  4465   002458  EF30  F012         	goto	u3360
  4466   00245C                     u3361:
  4467   00245C  EF38  F012         	goto	l3787
  4468   002460                     u3360:
  4469   002460  5061               	movf	keypad_get_value@value^0,w,c
  4470   002462  A4D8               	btfss	status,2,c
  4471   002464  EF36  F012         	goto	u3371
  4472   002468  EF38  F012         	goto	u3370
  4473   00246C                     u3371:
  4474   00246C  EF3A  F012         	goto	l3789
  4475   002470                     u3370:
  4476   002470                     l3787:
  4477                           
  4478                           ;ECU_layer/KEYPAD/ecu_keypad.c: 49:   }
  4479   002470  EF8A  F012         	goto	l3831
  4480   002474                     l3789:
  4481                           
  4482                           ;ECU_layer/KEYPAD/ecu_keypad.c: 51:       for(r_counter = 0 ; r_counter <4 ;r_counter++)
      +                          {
  4483   002474  0E00               	movlw	0
  4484   002476  6E65               	movwf	keypad_get_value@r_counter^0,c
  4485   002478                     l3795:
  4486                           
  4487                           ;ECU_layer/KEYPAD/ecu_keypad.c: 52:           for(l_counter = 0 ;l_counter <4 ;l_counter
      +                          ++){
  4488   002478  0E00               	movlw	0
  4489   00247A  6E64               	movwf	keypad_get_value@l_counter^0,c
  4490   00247C                     l3801:
  4491   00247C  5060               	movf	keypad_get_value@keypad_obj^0,w,c
  4492   00247E  2464               	addwf	keypad_get_value@l_counter^0,w,c
  4493   002480  6E58               	movwf	gpio_pin_write_logic@_pin_config^0,c
  4494   002482  0E00               	movlw	0
  4495   002484  6E59               	movwf	gpio_pin_write_logic@logic^0,c
  4496   002486  EC98  F011         	call	_gpio_pin_write_logic	;wreg free
  4497   00248A                     
  4498                           ;ECU_layer/KEYPAD/ecu_keypad.c: 54:           }
  4499   00248A  2A64               	incf	keypad_get_value@l_counter^0,f,c
  4500   00248C  0E03               	movlw	3
  4501   00248E  6464               	cpfsgt	keypad_get_value@l_counter^0,c
  4502   002490  EF4C  F012         	goto	u3381
  4503   002494  EF4E  F012         	goto	u3380
  4504   002498                     u3381:
  4505   002498  EF3E  F012         	goto	l3801
  4506   00249C                     u3380:
  4507   00249C  5060               	movf	keypad_get_value@keypad_obj^0,w,c
  4508   00249E  2465               	addwf	keypad_get_value@r_counter^0,w,c
  4509   0024A0  6E58               	movwf	gpio_pin_write_logic@_pin_config^0,c
  4510   0024A2  0E01               	movlw	1
  4511   0024A4  6E59               	movwf	gpio_pin_write_logic@logic^0,c
  4512   0024A6  EC98  F011         	call	_gpio_pin_write_logic	;wreg free
  4513   0024AA                     
  4514                           ;ECU_layer/KEYPAD/ecu_keypad.c: 57:           for(c_counter = 0 ; c_counter <4 ;c_counte
      +                          r++){
  4515   0024AA  0E00               	movlw	0
  4516   0024AC  6E66               	movwf	keypad_get_value@c_counter^0,c
  4517   0024AE                     l3815:
  4518   0024AE  5060               	movf	keypad_get_value@keypad_obj^0,w,c
  4519   0024B0  2466               	addwf	keypad_get_value@c_counter^0,w,c
  4520   0024B2  0F04               	addlw	4
  4521   0024B4  6E58               	movwf	gpio_pin_read_logic@_pin_config^0,c
  4522   0024B6  0E63               	movlw	low keypad_get_value@col_logic
  4523   0024B8  6E59               	movwf	gpio_pin_read_logic@logic^0,c
  4524   0024BA  ECFD  F013         	call	_gpio_pin_read_logic	;wreg free
  4525   0024BE                     
  4526                           ;ECU_layer/KEYPAD/ecu_keypad.c: 59:               if(HIGH == col_logic){
  4527   0024BE  0463               	decf	keypad_get_value@col_logic^0,w,c
  4528   0024C0  A4D8               	btfss	status,2,c
  4529   0024C2  EF65  F012         	goto	u3391
  4530   0024C6  EF67  F012         	goto	u3390
  4531   0024CA                     u3391:
  4532   0024CA  EF78  F012         	goto	l3821
  4533   0024CE                     u3390:
  4534   0024CE                     
  4535                           ;ECU_layer/KEYPAD/ecu_keypad.c: 60:                   *value = btn_values[r_counter][c_c
      +                          ounter];
  4536   0024CE  5065               	movf	keypad_get_value@r_counter^0,w,c
  4537   0024D0  0D04               	mullw	4
  4538   0024D2  50F3               	movf	243,w,c
  4539   0024D4  0F01               	addlw	low _btn_values
  4540   0024D6  2466               	addwf	keypad_get_value@c_counter^0,w,c
  4541   0024D8  6E62               	movwf	??_keypad_get_value^0,c
  4542   0024DA  C062  FFF6         	movff	??_keypad_get_value,tblptrl
  4543   0024DE                     	if	1	;There is more than 1 active tblptr byte
  4544   0024DE  0E10               	movlw	high __smallconst
  4545   0024E0  6EF7               	movwf	tblptrh,c
  4546   0024E2                     	endif
  4547   0024E2                     	if	1	;Program memory is < 0x10000, tblptru is always zero
  4548   0024E2  6AF8               	clrf	tblptru,c
  4549   0024E4                     	endif
  4550   0024E4                     	if	0	;tblptru may be non-zero
  4551   0024E4                     	endif
  4552   0024E4  5061               	movf	keypad_get_value@value^0,w,c
  4553   0024E6  6ED9               	movwf	fsr2l,c
  4554   0024E8  6ADA               	clrf	fsr2h,c
  4555   0024EA  0008               	tblrd		*
  4556   0024EC  CFF5 FFDF          	movff	tablat,indf2
  4557   0024F0                     l3821:
  4558                           
  4559                           ;ECU_layer/KEYPAD/ecu_keypad.c: 62:           }
  4560   0024F0  2A66               	incf	keypad_get_value@c_counter^0,f,c
  4561   0024F2  0E03               	movlw	3
  4562   0024F4  6466               	cpfsgt	keypad_get_value@c_counter^0,c
  4563   0024F6  EF7F  F012         	goto	u3401
  4564   0024FA  EF81  F012         	goto	u3400
  4565   0024FE                     u3401:
  4566   0024FE  EF57  F012         	goto	l3815
  4567   002502                     u3400:
  4568   002502                     
  4569                           ;ECU_layer/KEYPAD/ecu_keypad.c: 64:       }
  4570   002502  2A65               	incf	keypad_get_value@r_counter^0,f,c
  4571   002504  0E03               	movlw	3
  4572   002506  6465               	cpfsgt	keypad_get_value@r_counter^0,c
  4573   002508  EF88  F012         	goto	u3411
  4574   00250C  EF8A  F012         	goto	u3410
  4575   002510                     u3411:
  4576   002510  EF3C  F012         	goto	l3795
  4577   002514                     u3410:
  4578   002514                     l3831:
  4579                           
  4580                           ;ECU_layer/KEYPAD/ecu_keypad.c: 67:   return *value;
  4581   002514  5061               	movf	keypad_get_value@value^0,w,c
  4582   002516  6ED9               	movwf	fsr2l,c
  4583   002518  6ADA               	clrf	fsr2h,c
  4584   00251A  50DF               	movf	indf2,w,c
  4585   00251C  0012               	return		;funcret
  4586   00251E                     __end_of_keypad_get_value:
  4587                           	callstack 0
  4588                           
  4589 ;; *************** function _gpio_pin_write_logic *****************
  4590 ;; Defined at:
  4591 ;;		line 81 in file "MCAL_layer/GPIO/hal_gpio.c"
  4592 ;; Parameters:    Size  Location     Type
  4593 ;;  _pin_config     1    3[COMRAM] PTR const struct .
  4594 ;;		 -> seven_seg_obj$segment_pin(4), seven_seg_obj(5), keypad_obj$keypad_r_pins(4), keypad_obj(8), 
  4595 ;;		 -> lcd_obj$lcd_data(8), lcd_obj(10), 
  4596 ;;  logic           1    4[COMRAM] enum E2978
  4597 ;; Auto vars:     Size  Location     Type
  4598 ;;  ret             1   10[COMRAM] unsigned char 
  4599 ;; Return value:  Size  Location     Type
  4600 ;;                  1    wreg      unsigned char 
  4601 ;; Registers used:
  4602 ;;		wreg, fsr2l, fsr2h, status,2, status,0, prodl, prodh
  4603 ;; Tracked objects:
  4604 ;;		On entry : 0/0
  4605 ;;		On exit  : 0/0
  4606 ;;		Unchanged: 0/0
  4607 ;; Data sizes:     COMRAM   BANK0   BANK1   BANK2   BANK3   BANK4   BANK5   BANK6   BANK7   BANK8   BANK9  BANK10  BANK1
      +1  BANK12  BANK13  BANK14  BANK15
  4608 ;;      Params:         2       0       0       0       0       0       0       0       0       0       0       0       
      +0       0       0       0       0
  4609 ;;      Locals:         1       0       0       0       0       0       0       0       0       0       0       0       
      +0       0       0       0       0
  4610 ;;      Temps:          5       0       0       0       0       0       0       0       0       0       0       0       
      +0       0       0       0       0
  4611 ;;      Totals:         8       0       0       0       0       0       0       0       0       0       0       0       
      +0       0       0       0       0
  4612 ;;Total ram usage:        8 bytes
  4613 ;; Hardware stack levels used: 1
  4614 ;; Hardware stack levels required when called: 3
  4615 ;; This function calls:
  4616 ;;		Nothing
  4617 ;; This function is called by:
  4618 ;;		_keypad_init
  4619 ;;		_keypad_get_value
  4620 ;;		_lcd_8bit_init
  4621 ;;		_lcd_8bit_send_command
  4622 ;;		_lcd_8bit_send_char_data
  4623 ;;		_lcd_8bit_send_enable
  4624 ;;		_seven_segment_init
  4625 ;;		_lcd_4bit_init
  4626 ;;		_lcd_4bit_send_command
  4627 ;;		_lcd_4bit_send_char_data
  4628 ;;		_lcd_send_4bits
  4629 ;;		_lcd_4bit_send_enable
  4630 ;;		_seven_segment_write_number
  4631 ;;		_gpio_pin_intialize
  4632 ;; This function uses a non-reentrant model
  4633 ;;
  4634                           
  4635                           	psect	text14
  4636   002330                     __ptext14:
  4637                           	callstack 0
  4638   002330                     _gpio_pin_write_logic:
  4639                           	callstack 26
  4640   002330                     
  4641                           ;MCAL_layer/GPIO/hal_gpio.c: 82: Std_ReturnType ret = (Std_ReturnType)0x01;
  4642   002330  0E01               	movlw	1
  4643   002332  6E5F               	movwf	gpio_pin_write_logic@ret^0,c
  4644                           
  4645                           ;MCAL_layer/GPIO/hal_gpio.c: 83:  if((((void*)0) == _pin_config) || (_pin_config->pin > 
      +                          8 -1)){
  4646   002334  5058               	movf	gpio_pin_write_logic@_pin_config^0,w,c
  4647   002336  B4D8               	btfsc	status,2,c
  4648   002338  EFA0  F011         	goto	u2891
  4649   00233C  EFA2  F011         	goto	u2890
  4650   002340                     u2891:
  4651   002340  EFB2  F011         	goto	l3415
  4652   002344                     u2890:
  4653   002344  5058               	movf	gpio_pin_write_logic@_pin_config^0,w,c
  4654   002346  6ED9               	movwf	fsr2l,c
  4655   002348  6ADA               	clrf	fsr2h,c
  4656   00234A  30DF               	rrcf	223,w,c
  4657   00234C  32E8               	rrcf	wreg,f,c
  4658   00234E  32E8               	rrcf	wreg,f,c
  4659   002350  0B07               	andlw	7
  4660   002352  6E5A               	movwf	??_gpio_pin_write_logic^0,c
  4661   002354  0E07               	movlw	7
  4662   002356  645A               	cpfsgt	??_gpio_pin_write_logic^0,c
  4663   002358  EFB0  F011         	goto	u2901
  4664   00235C  EFB2  F011         	goto	u2900
  4665   002360                     u2901:
  4666   002360  EF09  F012         	goto	l3423
  4667   002364                     u2900:
  4668   002364                     l3415:
  4669                           
  4670                           ;MCAL_layer/GPIO/hal_gpio.c: 84:      ret = (Std_ReturnType)0x00;
  4671   002364  0E00               	movlw	0
  4672   002366  6E5F               	movwf	gpio_pin_write_logic@ret^0,c
  4673                           
  4674                           ;MCAL_layer/GPIO/hal_gpio.c: 86:  }
  4675   002368  EF1E  F012         	goto	l3425
  4676   00236C                     l3417:
  4677                           
  4678                           ;MCAL_layer/GPIO/hal_gpio.c: 90:              (*lat_reg[_pin_config->port] &= ~((uint8)1
      +                           << _pin_config->pin));
  4679   00236C  5058               	movf	gpio_pin_write_logic@_pin_config^0,w,c
  4680   00236E  6ED9               	movwf	fsr2l,c
  4681   002370  6ADA               	clrf	fsr2h,c
  4682   002372  30DF               	rrcf	223,w,c
  4683   002374  32E8               	rrcf	wreg,f,c
  4684   002376  32E8               	rrcf	wreg,f,c
  4685   002378  0B07               	andlw	7
  4686   00237A  6E5A               	movwf	??_gpio_pin_write_logic^0,c
  4687   00237C  0E01               	movlw	1
  4688   00237E  6E5B               	movwf	(??_gpio_pin_write_logic+1)^0,c
  4689   002380  2A5A               	incf	??_gpio_pin_write_logic^0,f,c
  4690   002382  EFC5  F011         	goto	u2914
  4691   002386                     u2915:
  4692   002386  90D8               	bcf	status,0,c
  4693   002388  365B               	rlcf	(??_gpio_pin_write_logic+1)^0,f,c
  4694   00238A                     u2914:
  4695   00238A  2E5A               	decfsz	??_gpio_pin_write_logic^0,f,c
  4696   00238C  EFC3  F011         	goto	u2915
  4697   002390  505B               	movf	(??_gpio_pin_write_logic+1)^0,w,c
  4698   002392  0AFF               	xorlw	255
  4699   002394  6E5C               	movwf	(??_gpio_pin_write_logic+2)^0,c
  4700   002396  5058               	movf	gpio_pin_write_logic@_pin_config^0,w,c
  4701   002398  6ED9               	movwf	fsr2l,c
  4702   00239A  6ADA               	clrf	fsr2h,c
  4703   00239C  50DF               	movf	223,w,c
  4704   00239E  0B07               	andlw	7
  4705   0023A0  0D02               	mullw	2
  4706   0023A2  50F3               	movf	243,w,c
  4707   0023A4  0F01               	addlw	low _lat_reg
  4708   0023A6  6ED9               	movwf	fsr2l,c
  4709   0023A8  6ADA               	clrf	fsr2h,c
  4710   0023AA  CFDE F05D          	movff	postinc2,??_gpio_pin_write_logic+3
  4711   0023AE  CFDD F05E          	movff	postdec2,??_gpio_pin_write_logic+4
  4712   0023B2  C05D  FFD9         	movff	??_gpio_pin_write_logic+3,fsr2l
  4713   0023B6  C05E  FFDA         	movff	??_gpio_pin_write_logic+4,fsr2h
  4714   0023BA  505C               	movf	(??_gpio_pin_write_logic+2)^0,w,c
  4715   0023BC  16DF               	andwf	indf2,f,c
  4716                           
  4717                           ;MCAL_layer/GPIO/hal_gpio.c: 91:              break;
  4718   0023BE  EF1E  F012         	goto	l3425
  4719   0023C2                     l3419:
  4720                           
  4721                           ;MCAL_layer/GPIO/hal_gpio.c: 93:               (*lat_reg[_pin_config->port] |= ((uint8)1
      +                           << _pin_config->pin));
  4722   0023C2  5058               	movf	gpio_pin_write_logic@_pin_config^0,w,c
  4723   0023C4  6ED9               	movwf	fsr2l,c
  4724   0023C6  6ADA               	clrf	fsr2h,c
  4725   0023C8  30DF               	rrcf	223,w,c
  4726   0023CA  32E8               	rrcf	wreg,f,c
  4727   0023CC  32E8               	rrcf	wreg,f,c
  4728   0023CE  0B07               	andlw	7
  4729   0023D0  6E5A               	movwf	??_gpio_pin_write_logic^0,c
  4730   0023D2  0E01               	movlw	1
  4731   0023D4  6E5B               	movwf	(??_gpio_pin_write_logic+1)^0,c
  4732   0023D6  2A5A               	incf	??_gpio_pin_write_logic^0,f,c
  4733   0023D8  EFF0  F011         	goto	u2924
  4734   0023DC                     u2925:
  4735   0023DC  90D8               	bcf	status,0,c
  4736   0023DE  365B               	rlcf	(??_gpio_pin_write_logic+1)^0,f,c
  4737   0023E0                     u2924:
  4738   0023E0  2E5A               	decfsz	??_gpio_pin_write_logic^0,f,c
  4739   0023E2  EFEE  F011         	goto	u2925
  4740   0023E6  5058               	movf	gpio_pin_write_logic@_pin_config^0,w,c
  4741   0023E8  6ED9               	movwf	fsr2l,c
  4742   0023EA  6ADA               	clrf	fsr2h,c
  4743   0023EC  50DF               	movf	223,w,c
  4744   0023EE  0B07               	andlw	7
  4745   0023F0  0D02               	mullw	2
  4746   0023F2  50F3               	movf	243,w,c
  4747   0023F4  0F01               	addlw	low _lat_reg
  4748   0023F6  6ED9               	movwf	fsr2l,c
  4749   0023F8  6ADA               	clrf	fsr2h,c
  4750   0023FA  CFDE F05C          	movff	postinc2,??_gpio_pin_write_logic+2
  4751   0023FE  CFDD F05D          	movff	postdec2,??_gpio_pin_write_logic+3
  4752   002402  C05C  FFD9         	movff	??_gpio_pin_write_logic+2,fsr2l
  4753   002406  C05D  FFDA         	movff	??_gpio_pin_write_logic+3,fsr2h
  4754   00240A  505B               	movf	(??_gpio_pin_write_logic+1)^0,w,c
  4755   00240C  12DF               	iorwf	indf2,f,c
  4756                           
  4757                           ;MCAL_layer/GPIO/hal_gpio.c: 94:              break;
  4758   00240E  EF1E  F012         	goto	l3425
  4759   002412                     l3423:
  4760   002412  5059               	movf	gpio_pin_write_logic@logic^0,w,c
  4761   002414  6E5A               	movwf	??_gpio_pin_write_logic^0,c
  4762   002416  6A5B               	clrf	(??_gpio_pin_write_logic+1)^0,c
  4763                           
  4764                           ; Switch on 2 bytes has been partitioned into a top level switch of size 1, and 1 sub-sw
      +                          itches
  4765                           ; Switch size 1, requested type "simple"
  4766                           ; Number of cases is 1, Range of values is 0 to 0
  4767                           ; switch strategies available:
  4768                           ; Name         Instructions Cycles
  4769                           ; simple_byte            4     3 (average)
  4770                           ;	Chosen strategy is simple_byte
  4771   002418  505B               	movf	(??_gpio_pin_write_logic+1)^0,w,c
  4772   00241A  0A00               	xorlw	0	; case 0
  4773   00241C  B4D8               	btfsc	status,2,c
  4774   00241E  EF13  F012         	goto	l5015
  4775   002422  EFB2  F011         	goto	l3415
  4776   002426                     l5015:
  4777                           
  4778                           ; Switch size 1, requested type "simple"
  4779                           ; Number of cases is 2, Range of values is 0 to 1
  4780                           ; switch strategies available:
  4781                           ; Name         Instructions Cycles
  4782                           ; simple_byte            7     4 (average)
  4783                           ;	Chosen strategy is simple_byte
  4784   002426  505A               	movf	??_gpio_pin_write_logic^0,w,c
  4785   002428  0A00               	xorlw	0	; case 0
  4786   00242A  B4D8               	btfsc	status,2,c
  4787   00242C  EFB6  F011         	goto	l3417
  4788   002430  0A01               	xorlw	1	; case 1
  4789   002432  B4D8               	btfsc	status,2,c
  4790   002434  EFE1  F011         	goto	l3419
  4791   002438  EFB2  F011         	goto	l3415
  4792   00243C                     l3425:
  4793                           
  4794                           ;MCAL_layer/GPIO/hal_gpio.c: 102: return ret;
  4795   00243C  505F               	movf	gpio_pin_write_logic@ret^0,w,c
  4796   00243E  0012               	return		;funcret
  4797   002440                     __end_of_gpio_pin_write_logic:
  4798                           	callstack 0
  4799                           
  4800 ;; *************** function _gpio_pin_read_logic *****************
  4801 ;; Defined at:
  4802 ;;		line 114 in file "MCAL_layer/GPIO/hal_gpio.c"
  4803 ;; Parameters:    Size  Location     Type
  4804 ;;  _pin_config     1    3[COMRAM] PTR const struct .
  4805 ;;		 -> keypad_obj$keypad_c_pins(4), keypad_obj(8), 
  4806 ;;  logic           1    4[COMRAM] PTR enum E2978
  4807 ;;		 -> keypad_get_value@col_logic(1), 
  4808 ;; Auto vars:     Size  Location     Type
  4809 ;;  ret             1    9[COMRAM] unsigned char 
  4810 ;; Return value:  Size  Location     Type
  4811 ;;                  1    wreg      unsigned char 
  4812 ;; Registers used:
  4813 ;;		wreg, fsr1l, fsr1h, fsr2l, fsr2h, status,2, status,0, prodl, prodh
  4814 ;; Tracked objects:
  4815 ;;		On entry : 0/0
  4816 ;;		On exit  : 0/0
  4817 ;;		Unchanged: 0/0
  4818 ;; Data sizes:     COMRAM   BANK0   BANK1   BANK2   BANK3   BANK4   BANK5   BANK6   BANK7   BANK8   BANK9  BANK10  BANK1
      +1  BANK12  BANK13  BANK14  BANK15
  4819 ;;      Params:         2       0       0       0       0       0       0       0       0       0       0       0       
      +0       0       0       0       0
  4820 ;;      Locals:         1       0       0       0       0       0       0       0       0       0       0       0       
      +0       0       0       0       0
  4821 ;;      Temps:          4       0       0       0       0       0       0       0       0       0       0       0       
      +0       0       0       0       0
  4822 ;;      Totals:         7       0       0       0       0       0       0       0       0       0       0       0       
      +0       0       0       0       0
  4823 ;;Total ram usage:        7 bytes
  4824 ;; Hardware stack levels used: 1
  4825 ;; Hardware stack levels required when called: 3
  4826 ;; This function calls:
  4827 ;;		Nothing
  4828 ;; This function is called by:
  4829 ;;		_keypad_get_value
  4830 ;; This function uses a non-reentrant model
  4831 ;;
  4832                           
  4833                           	psect	text15
  4834   0027FA                     __ptext15:
  4835                           	callstack 0
  4836   0027FA                     _gpio_pin_read_logic:
  4837                           	callstack 26
  4838   0027FA                     
  4839                           ;MCAL_layer/GPIO/hal_gpio.c: 115: Std_ReturnType ret = (Std_ReturnType)0x01;
  4840   0027FA  0E01               	movlw	1
  4841   0027FC  6E5E               	movwf	gpio_pin_read_logic@ret^0,c
  4842                           
  4843                           ;MCAL_layer/GPIO/hal_gpio.c: 116:  if((((void*)0) == _pin_config) || (((void*)0) == logi
      +                          c)|| (_pin_config->pin > 8 -1)){
  4844   0027FE  5058               	movf	gpio_pin_read_logic@_pin_config^0,w,c
  4845   002800  B4D8               	btfsc	status,2,c
  4846   002802  EF05  F014         	goto	u3081
  4847   002806  EF07  F014         	goto	u3080
  4848   00280A                     u3081:
  4849   00280A  EF1F  F014         	goto	l3559
  4850   00280E                     u3080:
  4851   00280E  5059               	movf	gpio_pin_read_logic@logic^0,w,c
  4852   002810  B4D8               	btfsc	status,2,c
  4853   002812  EF0D  F014         	goto	u3091
  4854   002816  EF0F  F014         	goto	u3090
  4855   00281A                     u3091:
  4856   00281A  EF1F  F014         	goto	l3559
  4857   00281E                     u3090:
  4858   00281E  5058               	movf	gpio_pin_read_logic@_pin_config^0,w,c
  4859   002820  6ED9               	movwf	fsr2l,c
  4860   002822  6ADA               	clrf	fsr2h,c
  4861   002824  30DF               	rrcf	223,w,c
  4862   002826  32E8               	rrcf	wreg,f,c
  4863   002828  32E8               	rrcf	wreg,f,c
  4864   00282A  0B07               	andlw	7
  4865   00282C  6E5A               	movwf	??_gpio_pin_read_logic^0,c
  4866   00282E  0E07               	movlw	7
  4867   002830  645A               	cpfsgt	??_gpio_pin_read_logic^0,c
  4868   002832  EF1D  F014         	goto	u3101
  4869   002836  EF1F  F014         	goto	u3100
  4870   00283A                     u3101:
  4871   00283A  EF23  F014         	goto	l3561
  4872   00283E                     u3100:
  4873   00283E                     l3559:
  4874                           
  4875                           ;MCAL_layer/GPIO/hal_gpio.c: 117:      ret = (Std_ReturnType)0x00;
  4876   00283E  0E00               	movlw	0
  4877   002840  6E5E               	movwf	gpio_pin_read_logic@ret^0,c
  4878                           
  4879                           ;MCAL_layer/GPIO/hal_gpio.c: 119:  }
  4880   002842  EF4D  F014         	goto	l3563
  4881   002846                     l3561:
  4882                           
  4883                           ;MCAL_layer/GPIO/hal_gpio.c: 121:      *logic= ((*port_reg[_pin_config->port] >> _pin_co
      +                          nfig->pin) & (uint8)1);
  4884   002846  5059               	movf	gpio_pin_read_logic@logic^0,w,c
  4885   002848  6ED9               	movwf	fsr2l,c
  4886   00284A  6ADA               	clrf	fsr2h,c
  4887   00284C  5058               	movf	gpio_pin_read_logic@_pin_config^0,w,c
  4888   00284E  6EE1               	movwf	fsr1l,c
  4889   002850  6AE2               	clrf	fsr1h,c
  4890   002852  30E7               	rrcf	231,w,c
  4891   002854  32E8               	rrcf	wreg,f,c
  4892   002856  32E8               	rrcf	wreg,f,c
  4893   002858  0B07               	andlw	7
  4894   00285A  6E5A               	movwf	??_gpio_pin_read_logic^0,c
  4895   00285C  5058               	movf	gpio_pin_read_logic@_pin_config^0,w,c
  4896   00285E  6EE1               	movwf	fsr1l,c
  4897   002860  6AE2               	clrf	fsr1h,c
  4898   002862  50E7               	movf	231,w,c
  4899   002864  0B07               	andlw	7
  4900   002866  0D02               	mullw	2
  4901   002868  50F3               	movf	243,w,c
  4902   00286A  0F90               	addlw	low _port_reg
  4903   00286C  6EE1               	movwf	fsr1l,c
  4904   00286E  6AE2               	clrf	fsr1h,c
  4905   002870  CFE6 F05B          	movff	postinc1,??_gpio_pin_read_logic+1
  4906   002874  CFE5 F05C          	movff	postdec1,??_gpio_pin_read_logic+2
  4907   002878  C05B  FFE1         	movff	??_gpio_pin_read_logic+1,fsr1l
  4908   00287C  C05C  FFE2         	movff	??_gpio_pin_read_logic+2,fsr1h
  4909   002880  50E7               	movf	indf1,w,c
  4910   002882  6E5D               	movwf	(??_gpio_pin_read_logic+3)^0,c
  4911   002884  2A5A               	incf	??_gpio_pin_read_logic^0,f,c
  4912   002886  EF47  F014         	goto	u3114
  4913   00288A                     u3115:
  4914   00288A  90D8               	bcf	status,0,c
  4915   00288C  325D               	rrcf	(??_gpio_pin_read_logic+3)^0,f,c
  4916   00288E                     u3114:
  4917   00288E  2E5A               	decfsz	??_gpio_pin_read_logic^0,f,c
  4918   002890  EF45  F014         	goto	u3115
  4919   002894  505D               	movf	(??_gpio_pin_read_logic+3)^0,w,c
  4920   002896  0B01               	andlw	1
  4921   002898  6EDF               	movwf	indf2,c
  4922   00289A                     l3563:
  4923                           
  4924                           ;MCAL_layer/GPIO/hal_gpio.c: 124: return ret;
  4925   00289A  505E               	movf	gpio_pin_read_logic@ret^0,w,c
  4926   00289C  0012               	return		;funcret
  4927   00289E                     __end_of_gpio_pin_read_logic:
  4928                           	callstack 0
  4929                           
  4930 ;; *************** function _gpio_port_write_logic *****************
  4931 ;; Defined at:
  4932 ;;		line 190 in file "MCAL_layer/GPIO/hal_gpio.c"
  4933 ;; Parameters:    Size  Location     Type
  4934 ;;  port            1    wreg     enum E2996
  4935 ;;  logic           1   11[COMRAM] unsigned char 
  4936 ;; Auto vars:     Size  Location     Type
  4937 ;;  port            1   14[COMRAM] enum E2996
  4938 ;;  ret             1    0        unsigned char 
  4939 ;;  ret             1    0        unsigned char 
  4940 ;; Return value:  Size  Location     Type
  4941 ;;                  1    wreg      unsigned char 
  4942 ;; Registers used:
  4943 ;;		wreg, fsr2l, fsr2h, status,2, status,0, prodl, prodh
  4944 ;; Tracked objects:
  4945 ;;		On entry : 0/0
  4946 ;;		On exit  : 0/0
  4947 ;;		Unchanged: 0/0
  4948 ;; Data sizes:     COMRAM   BANK0   BANK1   BANK2   BANK3   BANK4   BANK5   BANK6   BANK7   BANK8   BANK9  BANK10  BANK1
      +1  BANK12  BANK13  BANK14  BANK15
  4949 ;;      Params:         1       0       0       0       0       0       0       0       0       0       0       0       
      +0       0       0       0       0
  4950 ;;      Locals:         1       0       0       0       0       0       0       0       0       0       0       0       
      +0       0       0       0       0
  4951 ;;      Temps:          2       0       0       0       0       0       0       0       0       0       0       0       
      +0       0       0       0       0
  4952 ;;      Totals:         4       0       0       0       0       0       0       0       0       0       0       0       
      +0       0       0       0       0
  4953 ;;Total ram usage:        4 bytes
  4954 ;; Hardware stack levels used: 1
  4955 ;; Hardware stack levels required when called: 3
  4956 ;; This function calls:
  4957 ;;		Nothing
  4958 ;; This function is called by:
  4959 ;;		_main
  4960 ;; This function uses a non-reentrant model
  4961 ;;
  4962                           
  4963                           	psect	text16
  4964   002D66                     __ptext16:
  4965                           	callstack 0
  4966   002D66                     _gpio_port_write_logic:
  4967                           	callstack 27
  4968                           
  4969                           ;incstack = 0
  4970                           ;gpio_port_write_logic@port stored from wreg
  4971   002D66  6E63               	movwf	gpio_port_write_logic@port^0,c
  4972   002D68                     
  4973                           ;MCAL_layer/GPIO/hal_gpio.c: 192: if(port > 5 -1){
  4974   002D68  0E04               	movlw	4
  4975   002D6A  6463               	cpfsgt	gpio_port_write_logic@port^0,c
  4976   002D6C  EFBA  F016         	goto	u3351
  4977   002D70  EFBC  F016         	goto	u3350
  4978   002D74                     u3351:
  4979   002D74  EFBE  F016         	goto	l3777
  4980   002D78                     u3350:
  4981   002D78                     
  4982                           ;MCAL_layer/GPIO/hal_gpio.c: 194: }
  4983   002D78  EFCE  F016         	goto	l3779
  4984   002D7C                     l3777:
  4985                           
  4986                           ;MCAL_layer/GPIO/hal_gpio.c: 196:       *lat_reg[port] = logic;
  4987   002D7C  5063               	movf	gpio_port_write_logic@port^0,w,c
  4988   002D7E  0D02               	mullw	2
  4989   002D80  50F3               	movf	243,w,c
  4990   002D82  0F01               	addlw	low _lat_reg
  4991   002D84  6ED9               	movwf	fsr2l,c
  4992   002D86  6ADA               	clrf	fsr2h,c
  4993   002D88  CFDE F061          	movff	postinc2,??_gpio_port_write_logic
  4994   002D8C  CFDD F062          	movff	postdec2,??_gpio_port_write_logic+1
  4995   002D90  C061  FFD9         	movff	??_gpio_port_write_logic,fsr2l
  4996   002D94  C062  FFDA         	movff	??_gpio_port_write_logic+1,fsr2h
  4997   002D98  C060  FFDF         	movff	gpio_port_write_logic@logic,indf2
  4998   002D9C                     l3779:
  4999                           
  5000                           ;MCAL_layer/GPIO/hal_gpio.c: 198: return ret;
  5001   002D9C  0E01               	movlw	1
  5002   002D9E  0012               	return		;funcret
  5003   002DA0                     __end_of_gpio_port_write_logic:
  5004                           	callstack 0
  5005                           
  5006 ;; *************** function _gpio_port_direction_init *****************
  5007 ;; Defined at:
  5008 ;;		line 152 in file "MCAL_layer/GPIO/hal_gpio.c"
  5009 ;; Parameters:    Size  Location     Type
  5010 ;;  port            1    wreg     enum E2996
  5011 ;;  direction       1    3[COMRAM] unsigned char 
  5012 ;; Auto vars:     Size  Location     Type
  5013 ;;  port            1    6[COMRAM] enum E2996
  5014 ;;  ret             1    0        unsigned char 
  5015 ;;  ret             1    0        unsigned char 
  5016 ;; Return value:  Size  Location     Type
  5017 ;;                  1    wreg      unsigned char 
  5018 ;; Registers used:
  5019 ;;		wreg, fsr2l, fsr2h, status,2, status,0, prodl, prodh
  5020 ;; Tracked objects:
  5021 ;;		On entry : 0/0
  5022 ;;		On exit  : 0/0
  5023 ;;		Unchanged: 0/0
  5024 ;; Data sizes:     COMRAM   BANK0   BANK1   BANK2   BANK3   BANK4   BANK5   BANK6   BANK7   BANK8   BANK9  BANK10  BANK1
      +1  BANK12  BANK13  BANK14  BANK15
  5025 ;;      Params:         1       0       0       0       0       0       0       0       0       0       0       0       
      +0       0       0       0       0
  5026 ;;      Locals:         1       0       0       0       0       0       0       0       0       0       0       0       
      +0       0       0       0       0
  5027 ;;      Temps:          2       0       0       0       0       0       0       0       0       0       0       0       
      +0       0       0       0       0
  5028 ;;      Totals:         4       0       0       0       0       0       0       0       0       0       0       0       
      +0       0       0       0       0
  5029 ;;Total ram usage:        4 bytes
  5030 ;; Hardware stack levels used: 1
  5031 ;; Hardware stack levels required when called: 3
  5032 ;; This function calls:
  5033 ;;		Nothing
  5034 ;; This function is called by:
  5035 ;;		_main
  5036 ;; This function uses a non-reentrant model
  5037 ;;
  5038                           
  5039                           	psect	text17
  5040   002DA0                     __ptext17:
  5041                           	callstack 0
  5042   002DA0                     _gpio_port_direction_init:
  5043                           	callstack 27
  5044                           
  5045                           ;incstack = 0
  5046                           ;gpio_port_direction_init@port stored from wreg
  5047   002DA0  6E5B               	movwf	gpio_port_direction_init@port^0,c
  5048   002DA2                     
  5049                           ;MCAL_layer/GPIO/hal_gpio.c: 154: if(port > 5 -1){
  5050   002DA2  0E04               	movlw	4
  5051   002DA4  645B               	cpfsgt	gpio_port_direction_init@port^0,c
  5052   002DA6  EFD7  F016         	goto	u3321
  5053   002DAA  EFD9  F016         	goto	u3320
  5054   002DAE                     u3321:
  5055   002DAE  EFDB  F016         	goto	l3751
  5056   002DB2                     u3320:
  5057   002DB2                     
  5058                           ;MCAL_layer/GPIO/hal_gpio.c: 156: }
  5059   002DB2  EFEB  F016         	goto	l3753
  5060   002DB6                     l3751:
  5061                           
  5062                           ;MCAL_layer/GPIO/hal_gpio.c: 158:       *tris_reg[port] = direction;
  5063   002DB6  505B               	movf	gpio_port_direction_init@port^0,w,c
  5064   002DB8  0D02               	mullw	2
  5065   002DBA  50F3               	movf	243,w,c
  5066   002DBC  0F0B               	addlw	low _tris_reg
  5067   002DBE  6ED9               	movwf	fsr2l,c
  5068   002DC0  6ADA               	clrf	fsr2h,c
  5069   002DC2  CFDE F059          	movff	postinc2,??_gpio_port_direction_init
  5070   002DC6  CFDD F05A          	movff	postdec2,??_gpio_port_direction_init+1
  5071   002DCA  C059  FFD9         	movff	??_gpio_port_direction_init,fsr2l
  5072   002DCE  C05A  FFDA         	movff	??_gpio_port_direction_init+1,fsr2h
  5073   002DD2  C058  FFDF         	movff	gpio_port_direction_init@direction,indf2
  5074   002DD6                     l3753:
  5075                           
  5076                           ;MCAL_layer/GPIO/hal_gpio.c: 161: return ret;
  5077   002DD6  0E01               	movlw	1
  5078   002DD8  0012               	return		;funcret
  5079   002DDA                     __end_of_gpio_port_direction_init:
  5080                           	callstack 0
  5081                           
  5082 ;; *************** function ___awmod *****************
  5083 ;; Defined at:
  5084 ;;		line 7 in file "C:\Program Files\Microchip\xc8\v2.45\pic\sources\c99\common\awmod.c"
  5085 ;; Parameters:    Size  Location     Type
  5086 ;;  dividend        2    3[COMRAM] int 
  5087 ;;  divisor         2    5[COMRAM] int 
  5088 ;; Auto vars:     Size  Location     Type
  5089 ;;  sign            1    8[COMRAM] unsigned char 
  5090 ;;  counter         1    7[COMRAM] unsigned char 
  5091 ;; Return value:  Size  Location     Type
  5092 ;;                  2    3[COMRAM] int 
  5093 ;; Registers used:
  5094 ;;		wreg, status,2, status,0
  5095 ;; Tracked objects:
  5096 ;;		On entry : 0/0
  5097 ;;		On exit  : 0/0
  5098 ;;		Unchanged: 0/0
  5099 ;; Data sizes:     COMRAM   BANK0   BANK1   BANK2   BANK3   BANK4   BANK5   BANK6   BANK7   BANK8   BANK9  BANK10  BANK1
      +1  BANK12  BANK13  BANK14  BANK15
  5100 ;;      Params:         4       0       0       0       0       0       0       0       0       0       0       0       
      +0       0       0       0       0
  5101 ;;      Locals:         2       0       0       0       0       0       0       0       0       0       0       0       
      +0       0       0       0       0
  5102 ;;      Temps:          0       0       0       0       0       0       0       0       0       0       0       0       
      +0       0       0       0       0
  5103 ;;      Totals:         6       0       0       0       0       0       0       0       0       0       0       0       
      +0       0       0       0       0
  5104 ;;Total ram usage:        6 bytes
  5105 ;; Hardware stack levels used: 1
  5106 ;; Hardware stack levels required when called: 3
  5107 ;; This function calls:
  5108 ;;		Nothing
  5109 ;; This function is called by:
  5110 ;;		_main
  5111 ;; This function uses a non-reentrant model
  5112 ;;
  5113                           
  5114                           	psect	text18
  5115   00274A                     __ptext18:
  5116                           	callstack 0
  5117   00274A                     ___awmod:
  5118                           	callstack 27
  5119   00274A  0E00               	movlw	0
  5120   00274C  6E5D               	movwf	___awmod@sign^0,c
  5121   00274E  BE59               	btfsc	(___awmod@dividend+1)^0,7,c
  5122   002750  EFAE  F013         	goto	u3550
  5123   002754  EFAC  F013         	goto	u3551
  5124   002758                     u3551:
  5125   002758  EFB4  F013         	goto	l3953
  5126   00275C                     u3550:
  5127   00275C  6C58               	negf	___awmod@dividend^0,c
  5128   00275E  1E59               	comf	(___awmod@dividend+1)^0,f,c
  5129   002760  B0D8               	btfsc	status,0,c
  5130   002762  2A59               	incf	(___awmod@dividend+1)^0,f,c
  5131   002764  0E01               	movlw	1
  5132   002766  6E5D               	movwf	___awmod@sign^0,c
  5133   002768                     l3953:
  5134   002768  BE5B               	btfsc	(___awmod@divisor+1)^0,7,c
  5135   00276A  EFBB  F013         	goto	u3560
  5136   00276E  EFB9  F013         	goto	u3561
  5137   002772                     u3561:
  5138   002772  EFBF  F013         	goto	l3957
  5139   002776                     u3560:
  5140   002776  6C5A               	negf	___awmod@divisor^0,c
  5141   002778  1E5B               	comf	(___awmod@divisor+1)^0,f,c
  5142   00277A  B0D8               	btfsc	status,0,c
  5143   00277C  2A5B               	incf	(___awmod@divisor+1)^0,f,c
  5144   00277E                     l3957:
  5145   00277E  505A               	movf	___awmod@divisor^0,w,c
  5146   002780  105B               	iorwf	(___awmod@divisor+1)^0,w,c
  5147   002782  B4D8               	btfsc	status,2,c
  5148   002784  EFC6  F013         	goto	u3571
  5149   002788  EFC8  F013         	goto	u3570
  5150   00278C                     u3571:
  5151   00278C  EFEC  F013         	goto	l3973
  5152   002790                     u3570:
  5153   002790  0E01               	movlw	1
  5154   002792  6E5C               	movwf	___awmod@counter^0,c
  5155   002794  EFD0  F013         	goto	l3963
  5156   002798                     l3961:
  5157   002798  90D8               	bcf	status,0,c
  5158   00279A  365A               	rlcf	___awmod@divisor^0,f,c
  5159   00279C  365B               	rlcf	(___awmod@divisor+1)^0,f,c
  5160   00279E  2A5C               	incf	___awmod@counter^0,f,c
  5161   0027A0                     l3963:
  5162   0027A0  AE5B               	btfss	(___awmod@divisor+1)^0,7,c
  5163   0027A2  EFD5  F013         	goto	u3581
  5164   0027A6  EFD7  F013         	goto	u3580
  5165   0027AA                     u3581:
  5166   0027AA  EFCC  F013         	goto	l3961
  5167   0027AE                     u3580:
  5168   0027AE                     l3965:
  5169   0027AE  505A               	movf	___awmod@divisor^0,w,c
  5170   0027B0  5C58               	subwf	___awmod@dividend^0,w,c
  5171   0027B2  505B               	movf	(___awmod@divisor+1)^0,w,c
  5172   0027B4  5859               	subwfb	(___awmod@dividend+1)^0,w,c
  5173   0027B6  A0D8               	btfss	status,0,c
  5174   0027B8  EFE0  F013         	goto	u3591
  5175   0027BC  EFE2  F013         	goto	u3590
  5176   0027C0                     u3591:
  5177   0027C0  EFE6  F013         	goto	l3969
  5178   0027C4                     u3590:
  5179   0027C4  505A               	movf	___awmod@divisor^0,w,c
  5180   0027C6  5E58               	subwf	___awmod@dividend^0,f,c
  5181   0027C8  505B               	movf	(___awmod@divisor+1)^0,w,c
  5182   0027CA  5A59               	subwfb	(___awmod@dividend+1)^0,f,c
  5183   0027CC                     l3969:
  5184   0027CC  90D8               	bcf	status,0,c
  5185   0027CE  325B               	rrcf	(___awmod@divisor+1)^0,f,c
  5186   0027D0  325A               	rrcf	___awmod@divisor^0,f,c
  5187   0027D2  2E5C               	decfsz	___awmod@counter^0,f,c
  5188   0027D4  EFD7  F013         	goto	l3965
  5189   0027D8                     l3973:
  5190   0027D8  505D               	movf	___awmod@sign^0,w,c
  5191   0027DA  B4D8               	btfsc	status,2,c
  5192   0027DC  EFF2  F013         	goto	u3601
  5193   0027E0  EFF4  F013         	goto	u3600
  5194   0027E4                     u3601:
  5195   0027E4  EFF8  F013         	goto	l3977
  5196   0027E8                     u3600:
  5197   0027E8  6C58               	negf	___awmod@dividend^0,c
  5198   0027EA  1E59               	comf	(___awmod@dividend+1)^0,f,c
  5199   0027EC  B0D8               	btfsc	status,0,c
  5200   0027EE  2A59               	incf	(___awmod@dividend+1)^0,f,c
  5201   0027F0                     l3977:
  5202   0027F0  C058  F058         	movff	___awmod@dividend,?___awmod
  5203   0027F4  C059  F059         	movff	___awmod@dividend+1,?___awmod+1
  5204   0027F8  0012               	return		;funcret
  5205   0027FA                     __end_of___awmod:
  5206                           	callstack 0
  5207                           
  5208 ;; *************** function ___awdiv *****************
  5209 ;; Defined at:
  5210 ;;		line 7 in file "C:\Program Files\Microchip\xc8\v2.45\pic\sources\c99\common\awdiv.c"
  5211 ;; Parameters:    Size  Location     Type
  5212 ;;  dividend        2    3[COMRAM] int 
  5213 ;;  divisor         2    5[COMRAM] int 
  5214 ;; Auto vars:     Size  Location     Type
  5215 ;;  quotient        2    9[COMRAM] int 
  5216 ;;  sign            1    8[COMRAM] unsigned char 
  5217 ;;  counter         1    7[COMRAM] unsigned char 
  5218 ;; Return value:  Size  Location     Type
  5219 ;;                  2    3[COMRAM] int 
  5220 ;; Registers used:
  5221 ;;		wreg, status,2, status,0
  5222 ;; Tracked objects:
  5223 ;;		On entry : 0/0
  5224 ;;		On exit  : 0/0
  5225 ;;		Unchanged: 0/0
  5226 ;; Data sizes:     COMRAM   BANK0   BANK1   BANK2   BANK3   BANK4   BANK5   BANK6   BANK7   BANK8   BANK9  BANK10  BANK1
      +1  BANK12  BANK13  BANK14  BANK15
  5227 ;;      Params:         4       0       0       0       0       0       0       0       0       0       0       0       
      +0       0       0       0       0
  5228 ;;      Locals:         4       0       0       0       0       0       0       0       0       0       0       0       
      +0       0       0       0       0
  5229 ;;      Temps:          0       0       0       0       0       0       0       0       0       0       0       0       
      +0       0       0       0       0
  5230 ;;      Totals:         8       0       0       0       0       0       0       0       0       0       0       0       
      +0       0       0       0       0
  5231 ;;Total ram usage:        8 bytes
  5232 ;; Hardware stack levels used: 1
  5233 ;; Hardware stack levels required when called: 3
  5234 ;; This function calls:
  5235 ;;		Nothing
  5236 ;; This function is called by:
  5237 ;;		_main
  5238 ;; This function uses a non-reentrant model
  5239 ;;
  5240                           
  5241                           	psect	text19
  5242   00251E                     __ptext19:
  5243                           	callstack 0
  5244   00251E                     ___awdiv:
  5245                           	callstack 27
  5246   00251E  0E00               	movlw	0
  5247   002520  6E5D               	movwf	___awdiv@sign^0,c
  5248   002522  BE5B               	btfsc	(___awdiv@divisor+1)^0,7,c
  5249   002524  EF98  F012         	goto	u3490
  5250   002528  EF96  F012         	goto	u3491
  5251   00252C                     u3491:
  5252   00252C  EF9E  F012         	goto	l3909
  5253   002530                     u3490:
  5254   002530  6C5A               	negf	___awdiv@divisor^0,c
  5255   002532  1E5B               	comf	(___awdiv@divisor+1)^0,f,c
  5256   002534  B0D8               	btfsc	status,0,c
  5257   002536  2A5B               	incf	(___awdiv@divisor+1)^0,f,c
  5258   002538  0E01               	movlw	1
  5259   00253A  6E5D               	movwf	___awdiv@sign^0,c
  5260   00253C                     l3909:
  5261   00253C  BE59               	btfsc	(___awdiv@dividend+1)^0,7,c
  5262   00253E  EFA5  F012         	goto	u3500
  5263   002542  EFA3  F012         	goto	u3501
  5264   002546                     u3501:
  5265   002546  EFAB  F012         	goto	l3915
  5266   00254A                     u3500:
  5267   00254A  6C58               	negf	___awdiv@dividend^0,c
  5268   00254C  1E59               	comf	(___awdiv@dividend+1)^0,f,c
  5269   00254E  B0D8               	btfsc	status,0,c
  5270   002550  2A59               	incf	(___awdiv@dividend+1)^0,f,c
  5271   002552  0E01               	movlw	1
  5272   002554  1A5D               	xorwf	___awdiv@sign^0,f,c
  5273   002556                     l3915:
  5274   002556  0E00               	movlw	0
  5275   002558  6E5F               	movwf	(___awdiv@quotient+1)^0,c
  5276   00255A  0E00               	movlw	0
  5277   00255C  6E5E               	movwf	___awdiv@quotient^0,c
  5278   00255E  505A               	movf	___awdiv@divisor^0,w,c
  5279   002560  105B               	iorwf	(___awdiv@divisor+1)^0,w,c
  5280   002562  B4D8               	btfsc	status,2,c
  5281   002564  EFB6  F012         	goto	u3511
  5282   002568  EFB8  F012         	goto	u3510
  5283   00256C                     u3511:
  5284   00256C  EFE0  F012         	goto	l3937
  5285   002570                     u3510:
  5286   002570  0E01               	movlw	1
  5287   002572  6E5C               	movwf	___awdiv@counter^0,c
  5288   002574  EFC0  F012         	goto	l3923
  5289   002578                     l3921:
  5290   002578  90D8               	bcf	status,0,c
  5291   00257A  365A               	rlcf	___awdiv@divisor^0,f,c
  5292   00257C  365B               	rlcf	(___awdiv@divisor+1)^0,f,c
  5293   00257E  2A5C               	incf	___awdiv@counter^0,f,c
  5294   002580                     l3923:
  5295   002580  AE5B               	btfss	(___awdiv@divisor+1)^0,7,c
  5296   002582  EFC5  F012         	goto	u3521
  5297   002586  EFC7  F012         	goto	u3520
  5298   00258A                     u3521:
  5299   00258A  EFBC  F012         	goto	l3921
  5300   00258E                     u3520:
  5301   00258E                     l3925:
  5302   00258E  90D8               	bcf	status,0,c
  5303   002590  365E               	rlcf	___awdiv@quotient^0,f,c
  5304   002592  365F               	rlcf	(___awdiv@quotient+1)^0,f,c
  5305   002594  505A               	movf	___awdiv@divisor^0,w,c
  5306   002596  5C58               	subwf	___awdiv@dividend^0,w,c
  5307   002598  505B               	movf	(___awdiv@divisor+1)^0,w,c
  5308   00259A  5859               	subwfb	(___awdiv@dividend+1)^0,w,c
  5309   00259C  A0D8               	btfss	status,0,c
  5310   00259E  EFD3  F012         	goto	u3531
  5311   0025A2  EFD5  F012         	goto	u3530
  5312   0025A6                     u3531:
  5313   0025A6  EFDA  F012         	goto	l3933
  5314   0025AA                     u3530:
  5315   0025AA  505A               	movf	___awdiv@divisor^0,w,c
  5316   0025AC  5E58               	subwf	___awdiv@dividend^0,f,c
  5317   0025AE  505B               	movf	(___awdiv@divisor+1)^0,w,c
  5318   0025B0  5A59               	subwfb	(___awdiv@dividend+1)^0,f,c
  5319   0025B2  805E               	bsf	___awdiv@quotient^0,0,c
  5320   0025B4                     l3933:
  5321   0025B4  90D8               	bcf	status,0,c
  5322   0025B6  325B               	rrcf	(___awdiv@divisor+1)^0,f,c
  5323   0025B8  325A               	rrcf	___awdiv@divisor^0,f,c
  5324   0025BA  2E5C               	decfsz	___awdiv@counter^0,f,c
  5325   0025BC  EFC7  F012         	goto	l3925
  5326   0025C0                     l3937:
  5327   0025C0  505D               	movf	___awdiv@sign^0,w,c
  5328   0025C2  B4D8               	btfsc	status,2,c
  5329   0025C4  EFE6  F012         	goto	u3541
  5330   0025C8  EFE8  F012         	goto	u3540
  5331   0025CC                     u3541:
  5332   0025CC  EFEC  F012         	goto	l3941
  5333   0025D0                     u3540:
  5334   0025D0  6C5E               	negf	___awdiv@quotient^0,c
  5335   0025D2  1E5F               	comf	(___awdiv@quotient+1)^0,f,c
  5336   0025D4  B0D8               	btfsc	status,0,c
  5337   0025D6  2A5F               	incf	(___awdiv@quotient+1)^0,f,c
  5338   0025D8                     l3941:
  5339   0025D8  C05E  F058         	movff	___awdiv@quotient,?___awdiv
  5340   0025DC  C05F  F059         	movff	___awdiv@quotient+1,?___awdiv+1
  5341   0025E0  0012               	return		;funcret
  5342   0025E2                     __end_of___awdiv:
  5343                           	callstack 0
  5344                           
  5345 ;; *************** function _Timer0_Init *****************
  5346 ;; Defined at:
  5347 ;;		line 23 in file "MCAL_layer/TIMER0/hal_timer0.c"
  5348 ;; Parameters:    Size  Location     Type
  5349 ;;  timer           1    5[COMRAM] PTR const struct .
  5350 ;;		 -> timer0_obj(7), 
  5351 ;; Auto vars:     Size  Location     Type
  5352 ;;  ret             1    8[COMRAM] unsigned char 
  5353 ;; Return value:  Size  Location     Type
  5354 ;;                  1    wreg      unsigned char 
  5355 ;; Registers used:
  5356 ;;		wreg, fsr2l, fsr2h, status,2, status,0, cstack
  5357 ;; Tracked objects:
  5358 ;;		On entry : 0/0
  5359 ;;		On exit  : 0/0
  5360 ;;		Unchanged: 0/0
  5361 ;; Data sizes:     COMRAM   BANK0   BANK1   BANK2   BANK3   BANK4   BANK5   BANK6   BANK7   BANK8   BANK9  BANK10  BANK1
      +1  BANK12  BANK13  BANK14  BANK15
  5362 ;;      Params:         1       0       0       0       0       0       0       0       0       0       0       0       
      +0       0       0       0       0
  5363 ;;      Locals:         1       0       0       0       0       0       0       0       0       0       0       0       
      +0       0       0       0       0
  5364 ;;      Temps:          2       0       0       0       0       0       0       0       0       0       0       0       
      +0       0       0       0       0
  5365 ;;      Totals:         4       0       0       0       0       0       0       0       0       0       0       0       
      +0       0       0       0       0
  5366 ;;Total ram usage:        4 bytes
  5367 ;; Hardware stack levels used: 1
  5368 ;; Hardware stack levels required when called: 4
  5369 ;; This function calls:
  5370 ;;		_Timer0_Mode_Select
  5371 ;;		_Timer0_Reg_Size
  5372 ;;		_Timer0_prescaler_config
  5373 ;; This function is called by:
  5374 ;;		_main
  5375 ;; This function uses a non-reentrant model
  5376 ;;
  5377                           
  5378                           	psect	text20
  5379   00289E                     __ptext20:
  5380                           	callstack 0
  5381   00289E                     _Timer0_Init:
  5382                           	callstack 26
  5383   00289E                     
  5384                           ;MCAL_layer/TIMER0/hal_timer0.c: 24:     Std_ReturnType ret = (Std_ReturnType)0x01;
  5385   00289E  0E01               	movlw	1
  5386   0028A0  6E5D               	movwf	Timer0_Init@ret^0,c
  5387                           
  5388                           ;MCAL_layer/TIMER0/hal_timer0.c: 25:     if(((void*)0) == timer){
  5389   0028A2  505A               	movf	Timer0_Init@timer^0,w,c
  5390   0028A4  A4D8               	btfss	status,2,c
  5391   0028A6  EF57  F014         	goto	u3311
  5392   0028AA  EF59  F014         	goto	u3310
  5393   0028AE                     u3311:
  5394   0028AE  EF5D  F014         	goto	l868
  5395   0028B2                     u3310:
  5396   0028B2                     
  5397                           ;MCAL_layer/TIMER0/hal_timer0.c: 26:         ret = (Std_ReturnType)0x00;
  5398   0028B2  0E00               	movlw	0
  5399   0028B4  6E5D               	movwf	Timer0_Init@ret^0,c
  5400                           
  5401                           ;MCAL_layer/TIMER0/hal_timer0.c: 27:     }
  5402   0028B6  EF94  F014         	goto	l3741
  5403   0028BA                     l868:
  5404                           
  5405                           ;MCAL_layer/TIMER0/hal_timer0.c: 29:         (T0CONbits.TMR0ON = 0);
  5406   0028BA  9ED5               	bcf	213,7,c	;volatile
  5407   0028BC                     
  5408                           ;MCAL_layer/TIMER0/hal_timer0.c: 30:         Timer0_prescaler_config(timer);
  5409   0028BC  C05A  F058         	movff	Timer0_Init@timer,Timer0_prescaler_config@timer
  5410   0028C0  EC28  F016         	call	_Timer0_prescaler_config	;wreg free
  5411                           
  5412                           ;MCAL_layer/TIMER0/hal_timer0.c: 31:         Timer0_Mode_Select(timer);
  5413   0028C4  C05A  F058         	movff	Timer0_Init@timer,Timer0_Mode_Select@timer
  5414   0028C8  EC8D  F015         	call	_Timer0_Mode_Select	;wreg free
  5415                           
  5416                           ;MCAL_layer/TIMER0/hal_timer0.c: 32:         Timer0_Reg_Size(timer);
  5417   0028CC  C05A  F058         	movff	Timer0_Init@timer,Timer0_Reg_Size@timer
  5418   0028D0  ECED  F016         	call	_Timer0_Reg_Size	;wreg free
  5419   0028D4                     
  5420                           ;MCAL_layer/TIMER0/hal_timer0.c: 33:         TMR0H = ((timer->timer0_preload_val) >> 8);
  5421   0028D4  505A               	movf	Timer0_Init@timer^0,w,c
  5422   0028D6  6ED9               	movwf	fsr2l,c
  5423   0028D8  6ADA               	clrf	fsr2h,c
  5424   0028DA  0E04               	movlw	4
  5425   0028DC  26D9               	addwf	fsr2l,f,c
  5426   0028DE  CFDE F05B          	movff	postinc2,??_Timer0_Init
  5427   0028E2  CFDD F05C          	movff	postdec2,??_Timer0_Init+1
  5428   0028E6  C05C  F05B         	movff	??_Timer0_Init+1,??_Timer0_Init
  5429   0028EA  6A5C               	clrf	(??_Timer0_Init+1)^0,c
  5430   0028EC  505B               	movf	??_Timer0_Init^0,w,c
  5431   0028EE  6ED7               	movwf	215,c	;volatile
  5432   0028F0                     
  5433                           ;MCAL_layer/TIMER0/hal_timer0.c: 34:         TMR0L = (uint8)(timer->timer0_preload_val);
  5434   0028F0  505A               	movf	Timer0_Init@timer^0,w,c
  5435   0028F2  6ED9               	movwf	fsr2l,c
  5436   0028F4  6ADA               	clrf	fsr2h,c
  5437   0028F6  0E04               	movlw	4
  5438   0028F8  26D9               	addwf	fsr2l,f,c
  5439   0028FA  50DF               	movf	indf2,w,c
  5440   0028FC  6ED6               	movwf	214,c	;volatile
  5441   0028FE                     
  5442                           ;MCAL_layer/TIMER0/hal_timer0.c: 35:         timer0_preload = timer->timer0_preload_val;
  5443   0028FE  505A               	movf	Timer0_Init@timer^0,w,c
  5444   002900  6ED9               	movwf	fsr2l,c
  5445   002902  6ADA               	clrf	fsr2h,c
  5446   002904  0E04               	movlw	4
  5447   002906  26D9               	addwf	fsr2l,f,c
  5448   002908  CFDE F02C          	movff	postinc2,_timer0_preload
  5449   00290C  CFDD F02D          	movff	postdec2,_timer0_preload+1
  5450   002910                     
  5451                           ;MCAL_layer/TIMER0/hal_timer0.c: 37:         (INTCONbits.TMR0IE = 1);
  5452   002910  8AF2               	bsf	242,5,c	;volatile
  5453   002912                     
  5454                           ;MCAL_layer/TIMER0/hal_timer0.c: 38:         (INTCONbits.TMR0IF = 0);
  5455   002912  94F2               	bcf	242,2,c	;volatile
  5456   002914                     
  5457                           ;MCAL_layer/TIMER0/hal_timer0.c: 39:         Timer0_InterruptHandler = timer->Timer0_Int
      +                          erruptHandler;
  5458   002914  505A               	movf	Timer0_Init@timer^0,w,c
  5459   002916  6ED9               	movwf	fsr2l,c
  5460   002918  6ADA               	clrf	fsr2h,c
  5461   00291A  CFDE F02E          	movff	postinc2,_Timer0_InterruptHandler
  5462   00291E  CFDD F02F          	movff	postdec2,_Timer0_InterruptHandler+1
  5463   002922                     
  5464                           ;MCAL_layer/TIMER0/hal_timer0.c: 52:         (INTCONbits.GIE = 1);
  5465   002922  8EF2               	bsf	242,7,c	;volatile
  5466   002924                     
  5467                           ;MCAL_layer/TIMER0/hal_timer0.c: 53:         (INTCONbits.PEIE = 1);
  5468   002924  8CF2               	bsf	242,6,c	;volatile
  5469   002926                     
  5470                           ;MCAL_layer/TIMER0/hal_timer0.c: 57:         (T0CONbits.TMR0ON = 1);
  5471   002926  8ED5               	bsf	213,7,c	;volatile
  5472   002928                     l3741:
  5473                           
  5474                           ;MCAL_layer/TIMER0/hal_timer0.c: 59:     return ret;
  5475   002928  505D               	movf	Timer0_Init@ret^0,w,c
  5476   00292A  0012               	return		;funcret
  5477   00292C                     __end_of_Timer0_Init:
  5478                           	callstack 0
  5479                           
  5480 ;; *************** function _Timer0_prescaler_config *****************
  5481 ;; Defined at:
  5482 ;;		line 128 in file "MCAL_layer/TIMER0/hal_timer0.c"
  5483 ;; Parameters:    Size  Location     Type
  5484 ;;  timer           1    3[COMRAM] PTR const struct .
  5485 ;;		 -> timer0_obj(7), 
  5486 ;; Auto vars:     Size  Location     Type
  5487 ;;		None
  5488 ;; Return value:  Size  Location     Type
  5489 ;;                  1    wreg      void 
  5490 ;; Registers used:
  5491 ;;		wreg, fsr2l, fsr2h, status,2, status,0
  5492 ;; Tracked objects:
  5493 ;;		On entry : 0/0
  5494 ;;		On exit  : 0/0
  5495 ;;		Unchanged: 0/0
  5496 ;; Data sizes:     COMRAM   BANK0   BANK1   BANK2   BANK3   BANK4   BANK5   BANK6   BANK7   BANK8   BANK9  BANK10  BANK1
      +1  BANK12  BANK13  BANK14  BANK15
  5497 ;;      Params:         1       0       0       0       0       0       0       0       0       0       0       0       
      +0       0       0       0       0
  5498 ;;      Locals:         0       0       0       0       0       0       0       0       0       0       0       0       
      +0       0       0       0       0
  5499 ;;      Temps:          1       0       0       0       0       0       0       0       0       0       0       0       
      +0       0       0       0       0
  5500 ;;      Totals:         2       0       0       0       0       0       0       0       0       0       0       0       
      +0       0       0       0       0
  5501 ;;Total ram usage:        2 bytes
  5502 ;; Hardware stack levels used: 1
  5503 ;; Hardware stack levels required when called: 3
  5504 ;; This function calls:
  5505 ;;		Nothing
  5506 ;; This function is called by:
  5507 ;;		_Timer0_Init
  5508 ;; This function uses a non-reentrant model
  5509 ;;
  5510                           
  5511                           	psect	text21
  5512   002C50                     __ptext21:
  5513                           	callstack 0
  5514   002C50                     _Timer0_prescaler_config:
  5515                           	callstack 26
  5516   002C50                     
  5517                           ;MCAL_layer/TIMER0/hal_timer0.c: 129:     if(1 == timer->prescaler_enable){
  5518   002C50  5058               	movf	Timer0_prescaler_config@timer^0,w,c
  5519   002C52  6ED9               	movwf	fsr2l,c
  5520   002C54  6ADA               	clrf	fsr2h,c
  5521   002C56  0E06               	movlw	6
  5522   002C58  26D9               	addwf	fsr2l,f,c
  5523   002C5A  A0DF               	btfss	indf2,0,c
  5524   002C5C  EF32  F016         	goto	u3181
  5525   002C60  EF34  F016         	goto	u3180
  5526   002C64                     u3181:
  5527   002C64  EF43  F016         	goto	l3629
  5528   002C68                     u3180:
  5529   002C68                     
  5530                           ;MCAL_layer/TIMER0/hal_timer0.c: 130:         (T0CONbits.PSA = 0);
  5531   002C68  96D5               	bcf	213,3,c	;volatile
  5532   002C6A                     
  5533                           ;MCAL_layer/TIMER0/hal_timer0.c: 131:         T0CONbits.T0PS = timer->prescaler_val;
  5534   002C6A  5058               	movf	Timer0_prescaler_config@timer^0,w,c
  5535   002C6C  6ED9               	movwf	fsr2l,c
  5536   002C6E  6ADA               	clrf	fsr2h,c
  5537   002C70  0E03               	movlw	3
  5538   002C72  26D9               	addwf	fsr2l,f,c
  5539   002C74  50DF               	movf	indf2,w,c
  5540   002C76  6E59               	movwf	??_Timer0_prescaler_config^0,c
  5541   002C78  50D5               	movf	213,w,c	;volatile
  5542   002C7A  1859               	xorwf	??_Timer0_prescaler_config^0,w,c
  5543   002C7C  0BF8               	andlw	-8
  5544   002C7E  1859               	xorwf	??_Timer0_prescaler_config^0,w,c
  5545   002C80  6ED5               	movwf	213,c	;volatile
  5546                           
  5547                           ;MCAL_layer/TIMER0/hal_timer0.c: 132:     }
  5548   002C82  EF50  F016         	goto	l898
  5549   002C86                     l3629:
  5550   002C86  5058               	movf	Timer0_prescaler_config@timer^0,w,c
  5551   002C88  6ED9               	movwf	fsr2l,c
  5552   002C8A  6ADA               	clrf	fsr2h,c
  5553   002C8C  0E06               	movlw	6
  5554   002C8E  26D9               	addwf	fsr2l,f,c
  5555   002C90  B0DF               	btfsc	indf2,0,c
  5556   002C92  EF4D  F016         	goto	u3191
  5557   002C96  EF4F  F016         	goto	u3190
  5558   002C9A                     u3191:
  5559   002C9A  EF50  F016         	goto	l898
  5560   002C9E                     u3190:
  5561   002C9E                     
  5562                           ;MCAL_layer/TIMER0/hal_timer0.c: 134:         (T0CONbits.PSA = 1);
  5563   002C9E  86D5               	bsf	213,3,c	;volatile
  5564   002CA0                     l898:
  5565   002CA0  0012               	return		;funcret
  5566   002CA2                     __end_of_Timer0_prescaler_config:
  5567                           	callstack 0
  5568                           
  5569 ;; *************** function _Timer0_Reg_Size *****************
  5570 ;; Defined at:
  5571 ;;		line 156 in file "MCAL_layer/TIMER0/hal_timer0.c"
  5572 ;; Parameters:    Size  Location     Type
  5573 ;;  timer           1    3[COMRAM] PTR const struct .
  5574 ;;		 -> timer0_obj(7), 
  5575 ;; Auto vars:     Size  Location     Type
  5576 ;;		None
  5577 ;; Return value:  Size  Location     Type
  5578 ;;                  1    wreg      void 
  5579 ;; Registers used:
  5580 ;;		wreg, fsr2l, fsr2h, status,2, status,0
  5581 ;; Tracked objects:
  5582 ;;		On entry : 0/0
  5583 ;;		On exit  : 0/0
  5584 ;;		Unchanged: 0/0
  5585 ;; Data sizes:     COMRAM   BANK0   BANK1   BANK2   BANK3   BANK4   BANK5   BANK6   BANK7   BANK8   BANK9  BANK10  BANK1
      +1  BANK12  BANK13  BANK14  BANK15
  5586 ;;      Params:         1       0       0       0       0       0       0       0       0       0       0       0       
      +0       0       0       0       0
  5587 ;;      Locals:         0       0       0       0       0       0       0       0       0       0       0       0       
      +0       0       0       0       0
  5588 ;;      Temps:          0       0       0       0       0       0       0       0       0       0       0       0       
      +0       0       0       0       0
  5589 ;;      Totals:         1       0       0       0       0       0       0       0       0       0       0       0       
      +0       0       0       0       0
  5590 ;;Total ram usage:        1 bytes
  5591 ;; Hardware stack levels used: 1
  5592 ;; Hardware stack levels required when called: 3
  5593 ;; This function calls:
  5594 ;;		Nothing
  5595 ;; This function is called by:
  5596 ;;		_Timer0_Init
  5597 ;; This function uses a non-reentrant model
  5598 ;;
  5599                           
  5600                           	psect	text22
  5601   002DDA                     __ptext22:
  5602                           	callstack 0
  5603   002DDA                     _Timer0_Reg_Size:
  5604                           	callstack 26
  5605   002DDA                     
  5606                           ;MCAL_layer/TIMER0/hal_timer0.c: 157:     if(1 == timer->timer0_reg_size){
  5607   002DDA  5058               	movf	Timer0_Reg_Size@timer^0,w,c
  5608   002DDC  6ED9               	movwf	fsr2l,c
  5609   002DDE  6ADA               	clrf	fsr2h,c
  5610   002DE0  0E06               	movlw	6
  5611   002DE2  26D9               	addwf	fsr2l,f,c
  5612   002DE4  A6DF               	btfss	indf2,3,c
  5613   002DE6  EFF7  F016         	goto	u3241
  5614   002DEA  EFF9  F016         	goto	u3240
  5615   002DEE                     u3241:
  5616   002DEE  EFFC  F016         	goto	l3653
  5617   002DF2                     u3240:
  5618   002DF2                     
  5619                           ;MCAL_layer/TIMER0/hal_timer0.c: 158:         (T0CONbits.T08BIT = 1);
  5620   002DF2  8CD5               	bsf	213,6,c	;volatile
  5621                           
  5622                           ;MCAL_layer/TIMER0/hal_timer0.c: 159:     }
  5623   002DF4  EF09  F017         	goto	l916
  5624   002DF8                     l3653:
  5625   002DF8  5058               	movf	Timer0_Reg_Size@timer^0,w,c
  5626   002DFA  6ED9               	movwf	fsr2l,c
  5627   002DFC  6ADA               	clrf	fsr2h,c
  5628   002DFE  0E06               	movlw	6
  5629   002E00  26D9               	addwf	fsr2l,f,c
  5630   002E02  B6DF               	btfsc	indf2,3,c
  5631   002E04  EF06  F017         	goto	u3251
  5632   002E08  EF08  F017         	goto	u3250
  5633   002E0C                     u3251:
  5634   002E0C  EF09  F017         	goto	l916
  5635   002E10                     u3250:
  5636   002E10                     
  5637                           ;MCAL_layer/TIMER0/hal_timer0.c: 161:         (T0CONbits.T08BIT = 0);
  5638   002E10  9CD5               	bcf	213,6,c	;volatile
  5639   002E12                     l916:
  5640   002E12  0012               	return		;funcret
  5641   002E14                     __end_of_Timer0_Reg_Size:
  5642                           	callstack 0
  5643                           
  5644 ;; *************** function _Timer0_Mode_Select *****************
  5645 ;; Defined at:
  5646 ;;		line 139 in file "MCAL_layer/TIMER0/hal_timer0.c"
  5647 ;; Parameters:    Size  Location     Type
  5648 ;;  timer           1    3[COMRAM] PTR const struct .
  5649 ;;		 -> timer0_obj(7), 
  5650 ;; Auto vars:     Size  Location     Type
  5651 ;;		None
  5652 ;; Return value:  Size  Location     Type
  5653 ;;                  1    wreg      void 
  5654 ;; Registers used:
  5655 ;;		wreg, fsr2l, fsr2h, status,2, status,0
  5656 ;; Tracked objects:
  5657 ;;		On entry : 0/0
  5658 ;;		On exit  : 0/0
  5659 ;;		Unchanged: 0/0
  5660 ;; Data sizes:     COMRAM   BANK0   BANK1   BANK2   BANK3   BANK4   BANK5   BANK6   BANK7   BANK8   BANK9  BANK10  BANK1
      +1  BANK12  BANK13  BANK14  BANK15
  5661 ;;      Params:         1       0       0       0       0       0       0       0       0       0       0       0       
      +0       0       0       0       0
  5662 ;;      Locals:         0       0       0       0       0       0       0       0       0       0       0       0       
      +0       0       0       0       0
  5663 ;;      Temps:          0       0       0       0       0       0       0       0       0       0       0       0       
      +0       0       0       0       0
  5664 ;;      Totals:         1       0       0       0       0       0       0       0       0       0       0       0       
      +0       0       0       0       0
  5665 ;;Total ram usage:        1 bytes
  5666 ;; Hardware stack levels used: 1
  5667 ;; Hardware stack levels required when called: 3
  5668 ;; This function calls:
  5669 ;;		Nothing
  5670 ;; This function is called by:
  5671 ;;		_Timer0_Init
  5672 ;; This function uses a non-reentrant model
  5673 ;;
  5674                           
  5675                           	psect	text23
  5676   002B1A                     __ptext23:
  5677                           	callstack 0
  5678   002B1A                     _Timer0_Mode_Select:
  5679                           	callstack 26
  5680   002B1A                     
  5681                           ;MCAL_layer/TIMER0/hal_timer0.c: 140:     if(1 == timer->timer0_mode){
  5682   002B1A  5058               	movf	Timer0_Mode_Select@timer^0,w,c
  5683   002B1C  6ED9               	movwf	fsr2l,c
  5684   002B1E  6ADA               	clrf	fsr2h,c
  5685   002B20  0E06               	movlw	6
  5686   002B22  26D9               	addwf	fsr2l,f,c
  5687   002B24  A4DF               	btfss	indf2,2,c
  5688   002B26  EF97  F015         	goto	u3201
  5689   002B2A  EF99  F015         	goto	u3200
  5690   002B2E                     u3201:
  5691   002B2E  EF9C  F015         	goto	l3637
  5692   002B32                     u3200:
  5693   002B32                     
  5694                           ;MCAL_layer/TIMER0/hal_timer0.c: 141:         (T0CONbits.T0CS = 0);
  5695   002B32  9AD5               	bcf	213,5,c	;volatile
  5696                           
  5697                           ;MCAL_layer/TIMER0/hal_timer0.c: 142:     }
  5698   002B34  EFC7  F015         	goto	l909
  5699   002B38                     l3637:
  5700   002B38  5058               	movf	Timer0_Mode_Select@timer^0,w,c
  5701   002B3A  6ED9               	movwf	fsr2l,c
  5702   002B3C  6ADA               	clrf	fsr2h,c
  5703   002B3E  0E06               	movlw	6
  5704   002B40  26D9               	addwf	fsr2l,f,c
  5705   002B42  B4DF               	btfsc	indf2,2,c
  5706   002B44  EFA6  F015         	goto	u3211
  5707   002B48  EFA8  F015         	goto	u3210
  5708   002B4C                     u3211:
  5709   002B4C  EFC7  F015         	goto	l909
  5710   002B50                     u3210:
  5711   002B50                     
  5712                           ;MCAL_layer/TIMER0/hal_timer0.c: 144:         (T0CONbits.T0CS = 1);
  5713   002B50  8AD5               	bsf	213,5,c	;volatile
  5714   002B52                     
  5715                           ;MCAL_layer/TIMER0/hal_timer0.c: 145:         if(1 == timer->timer0_edge){
  5716   002B52  5058               	movf	Timer0_Mode_Select@timer^0,w,c
  5717   002B54  6ED9               	movwf	fsr2l,c
  5718   002B56  6ADA               	clrf	fsr2h,c
  5719   002B58  0E06               	movlw	6
  5720   002B5A  26D9               	addwf	fsr2l,f,c
  5721   002B5C  A2DF               	btfss	indf2,1,c
  5722   002B5E  EFB3  F015         	goto	u3221
  5723   002B62  EFB5  F015         	goto	u3220
  5724   002B66                     u3221:
  5725   002B66  EFB8  F015         	goto	l3645
  5726   002B6A                     u3220:
  5727   002B6A                     
  5728                           ;MCAL_layer/TIMER0/hal_timer0.c: 146:             (T0CONbits.T0SE = 0);
  5729   002B6A  98D5               	bcf	213,4,c	;volatile
  5730                           
  5731                           ;MCAL_layer/TIMER0/hal_timer0.c: 147:         }
  5732   002B6C  EFC7  F015         	goto	l909
  5733   002B70                     l3645:
  5734   002B70  5058               	movf	Timer0_Mode_Select@timer^0,w,c
  5735   002B72  6ED9               	movwf	fsr2l,c
  5736   002B74  6ADA               	clrf	fsr2h,c
  5737   002B76  0E06               	movlw	6
  5738   002B78  26D9               	addwf	fsr2l,f,c
  5739   002B7A  B2DF               	btfsc	indf2,1,c
  5740   002B7C  EFC2  F015         	goto	u3231
  5741   002B80  EFC4  F015         	goto	u3230
  5742   002B84                     u3231:
  5743   002B84  EFC7  F015         	goto	l908
  5744   002B88                     u3230:
  5745   002B88                     
  5746                           ;MCAL_layer/TIMER0/hal_timer0.c: 149:             (T0CONbits.T0SE = 1);
  5747   002B88  88D5               	bsf	213,4,c	;volatile
  5748                           
  5749                           ;MCAL_layer/TIMER0/hal_timer0.c: 150:         }
  5750   002B8A  EFC7  F015         	goto	l909
  5751   002B8E                     l908:
  5752   002B8E                     l909:
  5753   002B8E  0012               	return		;funcret
  5754   002B90                     __end_of_Timer0_Mode_Select:
  5755                           	callstack 0
  5756                           
  5757 ;; *************** function _InterruptManager *****************
  5758 ;; Defined at:
  5759 ;;		line 35 in file "MCAL_layer/Interrupt/mcal_interrupt_manager.c"
  5760 ;; Parameters:    Size  Location     Type
  5761 ;;		None
  5762 ;; Auto vars:     Size  Location     Type
  5763 ;;		None
  5764 ;; Return value:  Size  Location     Type
  5765 ;;                  1    wreg      void 
  5766 ;; Registers used:
  5767 ;;		wreg, status,2, status,0, pcl, pclath, pclatu, tosl, cstack
  5768 ;; Tracked objects:
  5769 ;;		On entry : 0/0
  5770 ;;		On exit  : 0/0
  5771 ;;		Unchanged: 0/0
  5772 ;; Data sizes:     COMRAM   BANK0   BANK1   BANK2   BANK3   BANK4   BANK5   BANK6   BANK7   BANK8   BANK9  BANK10  BANK1
      +1  BANK12  BANK13  BANK14  BANK15
  5773 ;;      Params:         0       0       0       0       0       0       0       0       0       0       0       0       
      +0       0       0       0       0
  5774 ;;      Locals:         0       0       0       0       0       0       0       0       0       0       0       0       
      +0       0       0       0       0
  5775 ;;      Temps:          2       0       0       0       0       0       0       0       0       0       0       0       
      +0       0       0       0       0
  5776 ;;      Totals:         2       0       0       0       0       0       0       0       0       0       0       0       
      +0       0       0       0       0
  5777 ;;Total ram usage:        2 bytes
  5778 ;; Hardware stack levels used: 1
  5779 ;; Hardware stack levels required when called: 2
  5780 ;; This function calls:
  5781 ;;		_INT0_ISR
  5782 ;;		_INT1_ISR
  5783 ;;		_INT2_ISR
  5784 ;;		_RB4_ISR
  5785 ;;		_RB5_ISR
  5786 ;;		_RB6_ISR
  5787 ;;		_RB7_ISR
  5788 ;;		_TMR0_ISR
  5789 ;;		_TMR1_ISR
  5790 ;; This function is called by:
  5791 ;;		Interrupt level 2
  5792 ;; This function uses a non-reentrant model
  5793 ;;
  5794                           
  5795                           	psect	intcode
  5796   000008                     __pintcode:
  5797                           	callstack 0
  5798   000008                     _InterruptManager:
  5799                           	callstack 22
  5800                           
  5801                           ;incstack = 0
  5802   000008  827C               	bsf	int$flags,1,c	;set compiler interrupt flag (level 2)
  5803   00000A  ED72  F00E         	call	int_func,f	;refresh shadow registers
  5804                           
  5805                           	psect	intcode_body
  5806   001CE4                     __pintcode_body:
  5807                           	callstack 22
  5808   001CE4                     int_func:
  5809                           	callstack 22
  5810   001CE4  0006               	pop		; remove dummy address from shadow register refresh
  5811   001CE6  CFFA F056          	movff	pclath,??_InterruptManager
  5812   001CEA  CFFB F057          	movff	pclatu,??_InterruptManager+1
  5813   001CEE                     
  5814                           ;MCAL_layer/Interrupt/mcal_interrupt_manager.c: 37:     if((1 == INTCONbits.INT0IE) && (
      +                          1 == INTCONbits.INT0IF)){
  5815   001CEE  A8F2               	btfss	242,4,c	;volatile
  5816   001CF0  EF7C  F00E         	goto	i2u234_41
  5817   001CF4  EF7E  F00E         	goto	i2u234_40
  5818   001CF8                     i2u234_41:
  5819   001CF8  EF87  F00E         	goto	i2l767
  5820   001CFC                     i2u234_40:
  5821   001CFC  A2F2               	btfss	242,1,c	;volatile
  5822   001CFE  EF83  F00E         	goto	i2u235_41
  5823   001D02  EF85  F00E         	goto	i2u235_40
  5824   001D06                     i2u235_41:
  5825   001D06  EF87  F00E         	goto	i2l767
  5826   001D0A                     i2u235_40:
  5827   001D0A                     
  5828                           ;MCAL_layer/Interrupt/mcal_interrupt_manager.c: 38:         INT0_ISR();
  5829   001D0A  EC8E  F017         	call	_INT0_ISR	;wreg free
  5830   001D0E                     i2l767:
  5831                           
  5832                           ;MCAL_layer/Interrupt/mcal_interrupt_manager.c: 41:     if((1 == INTCON3bits.INT1E) && (
      +                          1 == INTCON3bits.INT1F)){
  5833   001D0E  A6F0               	btfss	240,3,c	;volatile
  5834   001D10  EF8C  F00E         	goto	i2u236_41
  5835   001D14  EF8E  F00E         	goto	i2u236_40
  5836   001D18                     i2u236_41:
  5837   001D18  EF97  F00E         	goto	i2l769
  5838   001D1C                     i2u236_40:
  5839   001D1C  A0F0               	btfss	240,0,c	;volatile
  5840   001D1E  EF93  F00E         	goto	i2u237_41
  5841   001D22  EF95  F00E         	goto	i2u237_40
  5842   001D26                     i2u237_41:
  5843   001D26  EF97  F00E         	goto	i2l769
  5844   001D2A                     i2u237_40:
  5845   001D2A                     
  5846                           ;MCAL_layer/Interrupt/mcal_interrupt_manager.c: 42:         INT1_ISR();
  5847   001D2A  EC8C  F017         	call	_INT1_ISR	;wreg free
  5848   001D2E                     i2l769:
  5849                           
  5850                           ;MCAL_layer/Interrupt/mcal_interrupt_manager.c: 45:     if((1 == INTCON3bits.INT2IE) && 
      +                          (1 == INTCON3bits.INT2IF)){
  5851   001D2E  A8F0               	btfss	240,4,c	;volatile
  5852   001D30  EF9C  F00E         	goto	i2u238_41
  5853   001D34  EF9E  F00E         	goto	i2u238_40
  5854   001D38                     i2u238_41:
  5855   001D38  EFA7  F00E         	goto	i2l771
  5856   001D3C                     i2u238_40:
  5857   001D3C  A2F0               	btfss	240,1,c	;volatile
  5858   001D3E  EFA3  F00E         	goto	i2u239_41
  5859   001D42  EFA5  F00E         	goto	i2u239_40
  5860   001D46                     i2u239_41:
  5861   001D46  EFA7  F00E         	goto	i2l771
  5862   001D4A                     i2u239_40:
  5863   001D4A                     
  5864                           ;MCAL_layer/Interrupt/mcal_interrupt_manager.c: 46:         INT2_ISR();
  5865   001D4A  EC8A  F017         	call	_INT2_ISR	;wreg free
  5866   001D4E                     i2l771:
  5867                           
  5868                           ;MCAL_layer/Interrupt/mcal_interrupt_manager.c: 49:    if((1 == INTCONbits.TMR0IE) && (1
      +                           == INTCONbits.TMR0IF)){
  5869   001D4E  AAF2               	btfss	242,5,c	;volatile
  5870   001D50  EFAC  F00E         	goto	i2u240_41
  5871   001D54  EFAE  F00E         	goto	i2u240_40
  5872   001D58                     i2u240_41:
  5873   001D58  EFB7  F00E         	goto	i2l773
  5874   001D5C                     i2u240_40:
  5875   001D5C  A4F2               	btfss	242,2,c	;volatile
  5876   001D5E  EFB3  F00E         	goto	i2u241_41
  5877   001D62  EFB5  F00E         	goto	i2u241_40
  5878   001D66                     i2u241_41:
  5879   001D66  EFB7  F00E         	goto	i2l773
  5880   001D6A                     i2u241_40:
  5881   001D6A                     
  5882                           ;MCAL_layer/Interrupt/mcal_interrupt_manager.c: 50:         TMR0_ISR();
  5883   001D6A  EC0A  F017         	call	_TMR0_ISR	;wreg free
  5884   001D6E                     i2l773:
  5885                           
  5886                           ;MCAL_layer/Interrupt/mcal_interrupt_manager.c: 54:     if((1 == PIE1bits.TMR1IE) && (1 
      +                          == PIR1bits.TMR1IF)){
  5887   001D6E  A09D               	btfss	157,0,c	;volatile
  5888   001D70  EFBC  F00E         	goto	i2u242_41
  5889   001D74  EFBE  F00E         	goto	i2u242_40
  5890   001D78                     i2u242_41:
  5891   001D78  EFC7  F00E         	goto	i2l775
  5892   001D7C                     i2u242_40:
  5893   001D7C  A09E               	btfss	158,0,c	;volatile
  5894   001D7E  EFC3  F00E         	goto	i2u243_41
  5895   001D82  EFC5  F00E         	goto	i2u243_40
  5896   001D86                     i2u243_41:
  5897   001D86  EFC7  F00E         	goto	i2l775
  5898   001D8A                     i2u243_40:
  5899   001D8A                     
  5900                           ;MCAL_layer/Interrupt/mcal_interrupt_manager.c: 55:         TMR1_ISR();
  5901   001D8A  EC82  F017         	call	_TMR1_ISR	;wreg free
  5902   001D8E                     i2l775:
  5903                           
  5904                           ;MCAL_layer/Interrupt/mcal_interrupt_manager.c: 63:     if((1 == INTCONbits.RBIE) && (1 
      +                          == INTCONbits.RBIF) &&
  5905   001D8E  A6F2               	btfss	242,3,c	;volatile
  5906   001D90  EFCC  F00E         	goto	i2u244_41
  5907   001D94  EFCE  F00E         	goto	i2u244_40
  5908   001D98                     i2u244_41:
  5909   001D98  EFE9  F00E         	goto	i2l777
  5910   001D9C                     i2u244_40:
  5911   001D9C  A0F2               	btfss	242,0,c	;volatile
  5912   001D9E  EFD3  F00E         	goto	i2u245_41
  5913   001DA2  EFD5  F00E         	goto	i2u245_40
  5914   001DA6                     i2u245_41:
  5915   001DA6  EFE9  F00E         	goto	i2l777
  5916   001DAA                     i2u245_40:
  5917   001DAA  A881               	btfss	129,4,c	;volatile
  5918   001DAC  EFDA  F00E         	goto	i2u246_41
  5919   001DB0  EFDC  F00E         	goto	i2u246_40
  5920   001DB4                     i2u246_41:
  5921   001DB4  EFE9  F00E         	goto	i2l777
  5922   001DB8                     i2u246_40:
  5923   001DB8  0418               	decf	_RB4_Flag^0,w,c	;volatile
  5924   001DBA  A4D8               	btfss	status,2,c
  5925   001DBC  EFE2  F00E         	goto	i2u247_41
  5926   001DC0  EFE4  F00E         	goto	i2u247_40
  5927   001DC4                     i2u247_41:
  5928   001DC4  EFE9  F00E         	goto	i2l777
  5929   001DC8                     i2u247_40:
  5930   001DC8                     
  5931                           ;MCAL_layer/Interrupt/mcal_interrupt_manager.c: 64:        (PORTBbits.RB4 == HIGH) && (R
      +                          B4_Flag == 1)){;MCAL_layer/Interrupt/mcal_interrupt_manager.c: 65:         RB4_Flag = 0;
  5932   001DC8  0E00               	movlw	0
  5933   001DCA  6E18               	movwf	_RB4_Flag^0,c	;volatile
  5934   001DCC                     
  5935                           ;MCAL_layer/Interrupt/mcal_interrupt_manager.c: 66:         RB4_ISR(0);
  5936   001DCC  0E00               	movlw	0
  5937   001DCE  EC75  F017         	call	_RB4_ISR
  5938   001DD2                     i2l777:
  5939                           
  5940                           ;MCAL_layer/Interrupt/mcal_interrupt_manager.c: 69:     if((1 == INTCONbits.RBIE) && (1 
      +                          == INTCONbits.RBIF) &&
  5941   001DD2  A6F2               	btfss	242,3,c	;volatile
  5942   001DD4  EFEE  F00E         	goto	i2u248_41
  5943   001DD8  EFF0  F00E         	goto	i2u248_40
  5944   001DDC                     i2u248_41:
  5945   001DDC  EF0B  F00F         	goto	i2l779
  5946   001DE0                     i2u248_40:
  5947   001DE0  A0F2               	btfss	242,0,c	;volatile
  5948   001DE2  EFF5  F00E         	goto	i2u249_41
  5949   001DE6  EFF7  F00E         	goto	i2u249_40
  5950   001DEA                     i2u249_41:
  5951   001DEA  EF0B  F00F         	goto	i2l779
  5952   001DEE                     i2u249_40:
  5953   001DEE  B881               	btfsc	129,4,c	;volatile
  5954   001DF0  EFFC  F00E         	goto	i2u250_41
  5955   001DF4  EFFE  F00E         	goto	i2u250_40
  5956   001DF8                     i2u250_41:
  5957   001DF8  EF0B  F00F         	goto	i2l779
  5958   001DFC                     i2u250_40:
  5959   001DFC  5018               	movf	_RB4_Flag^0,w,c	;volatile
  5960   001DFE  A4D8               	btfss	status,2,c
  5961   001E00  EF04  F00F         	goto	i2u251_41
  5962   001E04  EF06  F00F         	goto	i2u251_40
  5963   001E08                     i2u251_41:
  5964   001E08  EF0B  F00F         	goto	i2l779
  5965   001E0C                     i2u251_40:
  5966   001E0C                     
  5967                           ;MCAL_layer/Interrupt/mcal_interrupt_manager.c: 70:        (PORTBbits.RB4 == LOW) && (RB
      +                          4_Flag == 0)){;MCAL_layer/Interrupt/mcal_interrupt_manager.c: 71:         RB4_Flag = 1;
  5968   001E0C  0E01               	movlw	1
  5969   001E0E  6E18               	movwf	_RB4_Flag^0,c	;volatile
  5970   001E10                     
  5971                           ;MCAL_layer/Interrupt/mcal_interrupt_manager.c: 72:         RB4_ISR(1);
  5972   001E10  0E01               	movlw	1
  5973   001E12  EC75  F017         	call	_RB4_ISR
  5974   001E16                     i2l779:
  5975                           
  5976                           ;MCAL_layer/Interrupt/mcal_interrupt_manager.c: 75:     if((1 == INTCONbits.RBIE) && (1 
      +                          == INTCONbits.RBIF) &&
  5977   001E16  A6F2               	btfss	242,3,c	;volatile
  5978   001E18  EF10  F00F         	goto	i2u252_41
  5979   001E1C  EF12  F00F         	goto	i2u252_40
  5980   001E20                     i2u252_41:
  5981   001E20  EF2D  F00F         	goto	i2l781
  5982   001E24                     i2u252_40:
  5983   001E24  A0F2               	btfss	242,0,c	;volatile
  5984   001E26  EF17  F00F         	goto	i2u253_41
  5985   001E2A  EF19  F00F         	goto	i2u253_40
  5986   001E2E                     i2u253_41:
  5987   001E2E  EF2D  F00F         	goto	i2l781
  5988   001E32                     i2u253_40:
  5989   001E32  AA81               	btfss	129,5,c	;volatile
  5990   001E34  EF1E  F00F         	goto	i2u254_41
  5991   001E38  EF20  F00F         	goto	i2u254_40
  5992   001E3C                     i2u254_41:
  5993   001E3C  EF2D  F00F         	goto	i2l781
  5994   001E40                     i2u254_40:
  5995   001E40  0417               	decf	_RB5_Flag^0,w,c	;volatile
  5996   001E42  A4D8               	btfss	status,2,c
  5997   001E44  EF26  F00F         	goto	i2u255_41
  5998   001E48  EF28  F00F         	goto	i2u255_40
  5999   001E4C                     i2u255_41:
  6000   001E4C  EF2D  F00F         	goto	i2l781
  6001   001E50                     i2u255_40:
  6002   001E50                     
  6003                           ;MCAL_layer/Interrupt/mcal_interrupt_manager.c: 76:        (PORTBbits.RB5 == HIGH) && (R
      +                          B5_Flag == 1)){;MCAL_layer/Interrupt/mcal_interrupt_manager.c: 77:         RB5_Flag = 0;
  6004   001E50  0E00               	movlw	0
  6005   001E52  6E17               	movwf	_RB5_Flag^0,c	;volatile
  6006   001E54                     
  6007                           ;MCAL_layer/Interrupt/mcal_interrupt_manager.c: 78:         RB5_ISR(0);
  6008   001E54  0E00               	movlw	0
  6009   001E56  EC68  F017         	call	_RB5_ISR
  6010   001E5A                     i2l781:
  6011                           
  6012                           ;MCAL_layer/Interrupt/mcal_interrupt_manager.c: 81:     if((1 == INTCONbits.RBIE) && (1 
      +                          == INTCONbits.RBIF) &&
  6013   001E5A  A6F2               	btfss	242,3,c	;volatile
  6014   001E5C  EF32  F00F         	goto	i2u256_41
  6015   001E60  EF34  F00F         	goto	i2u256_40
  6016   001E64                     i2u256_41:
  6017   001E64  EF4F  F00F         	goto	i2l783
  6018   001E68                     i2u256_40:
  6019   001E68  A0F2               	btfss	242,0,c	;volatile
  6020   001E6A  EF39  F00F         	goto	i2u257_41
  6021   001E6E  EF3B  F00F         	goto	i2u257_40
  6022   001E72                     i2u257_41:
  6023   001E72  EF4F  F00F         	goto	i2l783
  6024   001E76                     i2u257_40:
  6025   001E76  BA81               	btfsc	129,5,c	;volatile
  6026   001E78  EF40  F00F         	goto	i2u258_41
  6027   001E7C  EF42  F00F         	goto	i2u258_40
  6028   001E80                     i2u258_41:
  6029   001E80  EF4F  F00F         	goto	i2l783
  6030   001E84                     i2u258_40:
  6031   001E84  5017               	movf	_RB5_Flag^0,w,c	;volatile
  6032   001E86  A4D8               	btfss	status,2,c
  6033   001E88  EF48  F00F         	goto	i2u259_41
  6034   001E8C  EF4A  F00F         	goto	i2u259_40
  6035   001E90                     i2u259_41:
  6036   001E90  EF4F  F00F         	goto	i2l783
  6037   001E94                     i2u259_40:
  6038   001E94                     
  6039                           ;MCAL_layer/Interrupt/mcal_interrupt_manager.c: 82:        (PORTBbits.RB5 == LOW) && (RB
      +                          5_Flag == 0)){;MCAL_layer/Interrupt/mcal_interrupt_manager.c: 83:         RB5_Flag = 1;
  6040   001E94  0E01               	movlw	1
  6041   001E96  6E17               	movwf	_RB5_Flag^0,c	;volatile
  6042   001E98                     
  6043                           ;MCAL_layer/Interrupt/mcal_interrupt_manager.c: 84:         RB5_ISR(1);
  6044   001E98  0E01               	movlw	1
  6045   001E9A  EC68  F017         	call	_RB5_ISR
  6046   001E9E                     i2l783:
  6047                           
  6048                           ;MCAL_layer/Interrupt/mcal_interrupt_manager.c: 87:     if((1 == INTCONbits.RBIE) && (1 
      +                          == INTCONbits.RBIF) &&
  6049   001E9E  A6F2               	btfss	242,3,c	;volatile
  6050   001EA0  EF54  F00F         	goto	i2u260_41
  6051   001EA4  EF56  F00F         	goto	i2u260_40
  6052   001EA8                     i2u260_41:
  6053   001EA8  EF71  F00F         	goto	i2l785
  6054   001EAC                     i2u260_40:
  6055   001EAC  A0F2               	btfss	242,0,c	;volatile
  6056   001EAE  EF5B  F00F         	goto	i2u261_41
  6057   001EB2  EF5D  F00F         	goto	i2u261_40
  6058   001EB6                     i2u261_41:
  6059   001EB6  EF71  F00F         	goto	i2l785
  6060   001EBA                     i2u261_40:
  6061   001EBA  AC81               	btfss	129,6,c	;volatile
  6062   001EBC  EF62  F00F         	goto	i2u262_41
  6063   001EC0  EF64  F00F         	goto	i2u262_40
  6064   001EC4                     i2u262_41:
  6065   001EC4  EF71  F00F         	goto	i2l785
  6066   001EC8                     i2u262_40:
  6067   001EC8  0416               	decf	_RB6_Flag^0,w,c	;volatile
  6068   001ECA  A4D8               	btfss	status,2,c
  6069   001ECC  EF6A  F00F         	goto	i2u263_41
  6070   001ED0  EF6C  F00F         	goto	i2u263_40
  6071   001ED4                     i2u263_41:
  6072   001ED4  EF71  F00F         	goto	i2l785
  6073   001ED8                     i2u263_40:
  6074   001ED8                     
  6075                           ;MCAL_layer/Interrupt/mcal_interrupt_manager.c: 88:        (PORTBbits.RB6 == HIGH) && (R
      +                          B6_Flag == 1)){;MCAL_layer/Interrupt/mcal_interrupt_manager.c: 89:         RB6_Flag = 0;
  6076   001ED8  0E00               	movlw	0
  6077   001EDA  6E16               	movwf	_RB6_Flag^0,c	;volatile
  6078   001EDC                     
  6079                           ;MCAL_layer/Interrupt/mcal_interrupt_manager.c: 90:         RB6_ISR(0);
  6080   001EDC  0E00               	movlw	0
  6081   001EDE  EC5B  F017         	call	_RB6_ISR
  6082   001EE2                     i2l785:
  6083                           
  6084                           ;MCAL_layer/Interrupt/mcal_interrupt_manager.c: 93:     if((1 == INTCONbits.RBIE) && (1 
      +                          == INTCONbits.RBIF) &&
  6085   001EE2  A6F2               	btfss	242,3,c	;volatile
  6086   001EE4  EF76  F00F         	goto	i2u264_41
  6087   001EE8  EF78  F00F         	goto	i2u264_40
  6088   001EEC                     i2u264_41:
  6089   001EEC  EF93  F00F         	goto	i2l787
  6090   001EF0                     i2u264_40:
  6091   001EF0  A0F2               	btfss	242,0,c	;volatile
  6092   001EF2  EF7D  F00F         	goto	i2u265_41
  6093   001EF6  EF7F  F00F         	goto	i2u265_40
  6094   001EFA                     i2u265_41:
  6095   001EFA  EF93  F00F         	goto	i2l787
  6096   001EFE                     i2u265_40:
  6097   001EFE  BC81               	btfsc	129,6,c	;volatile
  6098   001F00  EF84  F00F         	goto	i2u266_41
  6099   001F04  EF86  F00F         	goto	i2u266_40
  6100   001F08                     i2u266_41:
  6101   001F08  EF93  F00F         	goto	i2l787
  6102   001F0C                     i2u266_40:
  6103   001F0C  5016               	movf	_RB6_Flag^0,w,c	;volatile
  6104   001F0E  A4D8               	btfss	status,2,c
  6105   001F10  EF8C  F00F         	goto	i2u267_41
  6106   001F14  EF8E  F00F         	goto	i2u267_40
  6107   001F18                     i2u267_41:
  6108   001F18  EF93  F00F         	goto	i2l787
  6109   001F1C                     i2u267_40:
  6110   001F1C                     
  6111                           ;MCAL_layer/Interrupt/mcal_interrupt_manager.c: 94:        (PORTBbits.RB6 == LOW) && (RB
      +                          6_Flag == 0)){;MCAL_layer/Interrupt/mcal_interrupt_manager.c: 95:         RB6_Flag = 1;
  6112   001F1C  0E01               	movlw	1
  6113   001F1E  6E16               	movwf	_RB6_Flag^0,c	;volatile
  6114   001F20                     
  6115                           ;MCAL_layer/Interrupt/mcal_interrupt_manager.c: 96:         RB6_ISR(1);
  6116   001F20  0E01               	movlw	1
  6117   001F22  EC5B  F017         	call	_RB6_ISR
  6118   001F26                     i2l787:
  6119                           
  6120                           ;MCAL_layer/Interrupt/mcal_interrupt_manager.c: 99:     if((1 == INTCONbits.RBIE) && (1 
      +                          == INTCONbits.RBIF) &&
  6121   001F26  A6F2               	btfss	242,3,c	;volatile
  6122   001F28  EF98  F00F         	goto	i2u268_41
  6123   001F2C  EF9A  F00F         	goto	i2u268_40
  6124   001F30                     i2u268_41:
  6125   001F30  EFB5  F00F         	goto	i2l789
  6126   001F34                     i2u268_40:
  6127   001F34  A0F2               	btfss	242,0,c	;volatile
  6128   001F36  EF9F  F00F         	goto	i2u269_41
  6129   001F3A  EFA1  F00F         	goto	i2u269_40
  6130   001F3E                     i2u269_41:
  6131   001F3E  EFB5  F00F         	goto	i2l789
  6132   001F42                     i2u269_40:
  6133   001F42  AE81               	btfss	129,7,c	;volatile
  6134   001F44  EFA6  F00F         	goto	i2u270_41
  6135   001F48  EFA8  F00F         	goto	i2u270_40
  6136   001F4C                     i2u270_41:
  6137   001F4C  EFB5  F00F         	goto	i2l789
  6138   001F50                     i2u270_40:
  6139   001F50  0415               	decf	_RB7_Flag^0,w,c	;volatile
  6140   001F52  A4D8               	btfss	status,2,c
  6141   001F54  EFAE  F00F         	goto	i2u271_41
  6142   001F58  EFB0  F00F         	goto	i2u271_40
  6143   001F5C                     i2u271_41:
  6144   001F5C  EFB5  F00F         	goto	i2l789
  6145   001F60                     i2u271_40:
  6146   001F60                     
  6147                           ;MCAL_layer/Interrupt/mcal_interrupt_manager.c: 100:        (PORTBbits.RB7 == HIGH) && (
      +                          RB7_Flag == 1)){;MCAL_layer/Interrupt/mcal_interrupt_manager.c: 101:         RB7_Flag = 
      +                          0;
  6148   001F60  0E00               	movlw	0
  6149   001F62  6E15               	movwf	_RB7_Flag^0,c	;volatile
  6150   001F64                     
  6151                           ;MCAL_layer/Interrupt/mcal_interrupt_manager.c: 102:         RB7_ISR(0);
  6152   001F64  0E00               	movlw	0
  6153   001F66  EC4E  F017         	call	_RB7_ISR
  6154   001F6A                     i2l789:
  6155                           
  6156                           ;MCAL_layer/Interrupt/mcal_interrupt_manager.c: 105:     if((1 == INTCONbits.RBIE) && (1
      +                           == INTCONbits.RBIF) &&
  6157   001F6A  A6F2               	btfss	242,3,c	;volatile
  6158   001F6C  EFBA  F00F         	goto	i2u272_41
  6159   001F70  EFBC  F00F         	goto	i2u272_40
  6160   001F74                     i2u272_41:
  6161   001F74  EFD7  F00F         	goto	i2l792
  6162   001F78                     i2u272_40:
  6163   001F78  A0F2               	btfss	242,0,c	;volatile
  6164   001F7A  EFC1  F00F         	goto	i2u273_41
  6165   001F7E  EFC3  F00F         	goto	i2u273_40
  6166   001F82                     i2u273_41:
  6167   001F82  EFD7  F00F         	goto	i2l792
  6168   001F86                     i2u273_40:
  6169   001F86  BE81               	btfsc	129,7,c	;volatile
  6170   001F88  EFC8  F00F         	goto	i2u274_41
  6171   001F8C  EFCA  F00F         	goto	i2u274_40
  6172   001F90                     i2u274_41:
  6173   001F90  EFD7  F00F         	goto	i2l792
  6174   001F94                     i2u274_40:
  6175   001F94  5015               	movf	_RB7_Flag^0,w,c	;volatile
  6176   001F96  A4D8               	btfss	status,2,c
  6177   001F98  EFD0  F00F         	goto	i2u275_41
  6178   001F9C  EFD2  F00F         	goto	i2u275_40
  6179   001FA0                     i2u275_41:
  6180   001FA0  EFD7  F00F         	goto	i2l792
  6181   001FA4                     i2u275_40:
  6182   001FA4                     
  6183                           ;MCAL_layer/Interrupt/mcal_interrupt_manager.c: 106:        (PORTBbits.RB7 == LOW) && (R
      +                          B7_Flag == 0)){;MCAL_layer/Interrupt/mcal_interrupt_manager.c: 107:         RB7_Flag = 1
      +                          ;
  6184   001FA4  0E01               	movlw	1
  6185   001FA6  6E15               	movwf	_RB7_Flag^0,c	;volatile
  6186   001FA8                     
  6187                           ;MCAL_layer/Interrupt/mcal_interrupt_manager.c: 108:         RB7_ISR(1);
  6188   001FA8  0E01               	movlw	1
  6189   001FAA  EC4E  F017         	call	_RB7_ISR
  6190   001FAE                     i2l792:
  6191   001FAE  C057  FFFB         	movff	??_InterruptManager+1,pclatu
  6192   001FB2  C056  FFFA         	movff	??_InterruptManager,pclath
  6193   001FB6  927C               	bcf	int$flags,1,c	;clear compiler interrupt flag (level 2)
  6194   001FB8  0011               	retfie		f
  6195   001FBA                     __end_of_InterruptManager:
  6196                           	callstack 0
  6197                           
  6198 ;; *************** function _TMR1_ISR *****************
  6199 ;; Defined at:
  6200 ;;		line 134 in file "MCAL_layer/TIMER1/hal_timer1.c"
  6201 ;; Parameters:    Size  Location     Type
  6202 ;;		None
  6203 ;; Auto vars:     Size  Location     Type
  6204 ;;		None
  6205 ;; Return value:  Size  Location     Type
  6206 ;;                  1    wreg      void 
  6207 ;; Registers used:
  6208 ;;		wreg, status,2
  6209 ;; Tracked objects:
  6210 ;;		On entry : 0/0
  6211 ;;		On exit  : 0/0
  6212 ;;		Unchanged: 0/0
  6213 ;; Data sizes:     COMRAM   BANK0   BANK1   BANK2   BANK3   BANK4   BANK5   BANK6   BANK7   BANK8   BANK9  BANK10  BANK1
      +1  BANK12  BANK13  BANK14  BANK15
  6214 ;;      Params:         0       0       0       0       0       0       0       0       0       0       0       0       
      +0       0       0       0       0
  6215 ;;      Locals:         0       0       0       0       0       0       0       0       0       0       0       0       
      +0       0       0       0       0
  6216 ;;      Temps:          0       0       0       0       0       0       0       0       0       0       0       0       
      +0       0       0       0       0
  6217 ;;      Totals:         0       0       0       0       0       0       0       0       0       0       0       0       
      +0       0       0       0       0
  6218 ;;Total ram usage:        0 bytes
  6219 ;; Hardware stack levels used: 1
  6220 ;; This function calls:
  6221 ;;		Nothing
  6222 ;; This function is called by:
  6223 ;;		_InterruptManager
  6224 ;; This function uses a non-reentrant model
  6225 ;;
  6226                           
  6227                           	psect	text25
  6228   002F04                     __ptext25:
  6229                           	callstack 0
  6230   002F04                     _TMR1_ISR:
  6231                           	callstack 23
  6232   002F04                     
  6233                           ;MCAL_layer/TIMER1/hal_timer1.c: 135:     (PIR1bits.TMR1IF = 0);
  6234   002F04  909E               	bcf	158,0,c	;volatile
  6235   002F06                     
  6236                           ;MCAL_layer/TIMER1/hal_timer1.c: 136:     TMR1H = ((timer1_preload) >> 8);
  6237   002F06  5031               	movf	(_timer1_preload+1)^0,w,c
  6238   002F08  6ECF               	movwf	207,c	;volatile
  6239   002F0A                     
  6240                           ;MCAL_layer/TIMER1/hal_timer1.c: 137:     TMR1L = (uint8)(timer1_preload);
  6241   002F0A  C030  FFCE         	movff	_timer1_preload,4046	;volatile
  6242   002F0E  0012               	return		;funcret
  6243   002F10                     __end_of_TMR1_ISR:
  6244                           	callstack 0
  6245                           
  6246 ;; *************** function _TMR0_ISR *****************
  6247 ;; Defined at:
  6248 ;;		line 118 in file "MCAL_layer/TIMER0/hal_timer0.c"
  6249 ;; Parameters:    Size  Location     Type
  6250 ;;		None
  6251 ;; Auto vars:     Size  Location     Type
  6252 ;;		None
  6253 ;; Return value:  Size  Location     Type
  6254 ;;                  1    wreg      void 
  6255 ;; Registers used:
  6256 ;;		wreg, status,2, status,0, pcl, pclath, pclatu, tosl, cstack
  6257 ;; Tracked objects:
  6258 ;;		On entry : 0/0
  6259 ;;		On exit  : 0/0
  6260 ;;		Unchanged: 0/0
  6261 ;; Data sizes:     COMRAM   BANK0   BANK1   BANK2   BANK3   BANK4   BANK5   BANK6   BANK7   BANK8   BANK9  BANK10  BANK1
      +1  BANK12  BANK13  BANK14  BANK15
  6262 ;;      Params:         0       0       0       0       0       0       0       0       0       0       0       0       
      +0       0       0       0       0
  6263 ;;      Locals:         0       0       0       0       0       0       0       0       0       0       0       0       
      +0       0       0       0       0
  6264 ;;      Temps:          0       0       0       0       0       0       0       0       0       0       0       0       
      +0       0       0       0       0
  6265 ;;      Totals:         0       0       0       0       0       0       0       0       0       0       0       0       
      +0       0       0       0       0
  6266 ;;Total ram usage:        0 bytes
  6267 ;; Hardware stack levels used: 1
  6268 ;; Hardware stack levels required when called: 1
  6269 ;; This function calls:
  6270 ;;		NULL
  6271 ;;		_tmr0_isr
  6272 ;; This function is called by:
  6273 ;;		_InterruptManager
  6274 ;; This function uses a non-reentrant model
  6275 ;;
  6276                           
  6277                           	psect	text26
  6278   002E14                     __ptext26:
  6279                           	callstack 0
  6280   002E14                     _TMR0_ISR:
  6281                           	callstack 22
  6282   002E14                     
  6283                           ;MCAL_layer/TIMER0/hal_timer0.c: 119:     (INTCONbits.TMR0IF = 0);
  6284   002E14  94F2               	bcf	242,2,c	;volatile
  6285   002E16                     
  6286                           ;MCAL_layer/TIMER0/hal_timer0.c: 120:     TMR0H = ((timer0_preload) >> 8);
  6287   002E16  502D               	movf	(_timer0_preload+1)^0,w,c
  6288   002E18  6ED7               	movwf	215,c	;volatile
  6289   002E1A                     
  6290                           ;MCAL_layer/TIMER0/hal_timer0.c: 121:     TMR0L = (uint8)(timer0_preload);
  6291   002E1A  C02C  FFD6         	movff	_timer0_preload,4054	;volatile
  6292   002E1E                     
  6293                           ;MCAL_layer/TIMER0/hal_timer0.c: 122:     if(Timer0_InterruptHandler){
  6294   002E1E  502E               	movf	_Timer0_InterruptHandler^0,w,c
  6295   002E20  102F               	iorwf	(_Timer0_InterruptHandler+1)^0,w,c
  6296   002E22  B4D8               	btfsc	status,2,c
  6297   002E24  EF16  F017         	goto	i2u68_41
  6298   002E28  EF18  F017         	goto	i2u68_40
  6299   002E2C                     i2u68_41:
  6300   002E2C  EF24  F017         	goto	i2l891
  6301   002E30                     i2u68_40:
  6302   002E30                     
  6303                           ;MCAL_layer/TIMER0/hal_timer0.c: 123:         Timer0_InterruptHandler();
  6304   002E30  D802               	call	i2u69_48
  6305   002E32  EF24  F017         	goto	i2u69_49
  6306   002E36                     i2u69_48:
  6307   002E36  0005               	push	
  6308   002E38  6EFA               	movwf	pclath,c
  6309   002E3A  502E               	movf	_Timer0_InterruptHandler^0,w,c
  6310   002E3C  6EFD               	movwf	tosl,c
  6311   002E3E  502F               	movf	(_Timer0_InterruptHandler+1)^0,w,c
  6312   002E40  6EFE               	movwf	tosh,c
  6313   002E42  6AFF               	clrf	tosu,c
  6314   002E44  50FA               	movf	pclath,w,c
  6315   002E46  0012               	return		;indir
  6316   002E48                     i2u69_49:
  6317   002E48                     i2l891:
  6318   002E48  0012               	return		;funcret
  6319   002E4A                     __end_of_TMR0_ISR:
  6320                           	callstack 0
  6321                           
  6322 ;; *************** function _tmr0_isr *****************
  6323 ;; Defined at:
  6324 ;;		line 352 in file "application.c"
  6325 ;; Parameters:    Size  Location     Type
  6326 ;;		None
  6327 ;; Auto vars:     Size  Location     Type
  6328 ;;		None
  6329 ;; Return value:  Size  Location     Type
  6330 ;;                  1    wreg      void 
  6331 ;; Registers used:
  6332 ;;		status,2, status,0
  6333 ;; Tracked objects:
  6334 ;;		On entry : 0/0
  6335 ;;		On exit  : 0/0
  6336 ;;		Unchanged: 0/0
  6337 ;; Data sizes:     COMRAM   BANK0   BANK1   BANK2   BANK3   BANK4   BANK5   BANK6   BANK7   BANK8   BANK9  BANK10  BANK1
      +1  BANK12  BANK13  BANK14  BANK15
  6338 ;;      Params:         0       0       0       0       0       0       0       0       0       0       0       0       
      +0       0       0       0       0
  6339 ;;      Locals:         0       0       0       0       0       0       0       0       0       0       0       0       
      +0       0       0       0       0
  6340 ;;      Temps:          0       0       0       0       0       0       0       0       0       0       0       0       
      +0       0       0       0       0
  6341 ;;      Totals:         0       0       0       0       0       0       0       0       0       0       0       0       
      +0       0       0       0       0
  6342 ;;Total ram usage:        0 bytes
  6343 ;; Hardware stack levels used: 1
  6344 ;; This function calls:
  6345 ;;		Nothing
  6346 ;; This function is called by:
  6347 ;;		_TMR0_ISR
  6348 ;; This function uses a non-reentrant model
  6349 ;;
  6350                           
  6351                           	psect	text27
  6352   002F10                     __ptext27:
  6353                           	callstack 0
  6354   002F10                     _tmr0_isr:
  6355                           	callstack 22
  6356   002F10                     
  6357                           ;application.c: 353:      seconds++;
  6358   002F10  2A53               	incf	_seconds^0,f,c
  6359   002F12  0012               	return		;funcret
  6360   002F14                     __end_of_tmr0_isr:
  6361                           	callstack 0
  6362                           
  6363 ;; *************** function _RB7_ISR *****************
  6364 ;; Defined at:
  6365 ;;		line 162 in file "MCAL_layer/Interrupt/mcal_external_interrupt.c"
  6366 ;; Parameters:    Size  Location     Type
  6367 ;;  RB7_Source      1    wreg     unsigned char 
  6368 ;; Auto vars:     Size  Location     Type
  6369 ;;  RB7_Source      1    0[COMRAM] unsigned char 
  6370 ;; Return value:  Size  Location     Type
  6371 ;;                  1    wreg      void 
  6372 ;; Registers used:
  6373 ;;		wreg, status,2, status,0
  6374 ;; Tracked objects:
  6375 ;;		On entry : 0/0
  6376 ;;		On exit  : 0/0
  6377 ;;		Unchanged: 0/0
  6378 ;; Data sizes:     COMRAM   BANK0   BANK1   BANK2   BANK3   BANK4   BANK5   BANK6   BANK7   BANK8   BANK9  BANK10  BANK1
      +1  BANK12  BANK13  BANK14  BANK15
  6379 ;;      Params:         0       0       0       0       0       0       0       0       0       0       0       0       
      +0       0       0       0       0
  6380 ;;      Locals:         1       0       0       0       0       0       0       0       0       0       0       0       
      +0       0       0       0       0
  6381 ;;      Temps:          0       0       0       0       0       0       0       0       0       0       0       0       
      +0       0       0       0       0
  6382 ;;      Totals:         1       0       0       0       0       0       0       0       0       0       0       0       
      +0       0       0       0       0
  6383 ;;Total ram usage:        1 bytes
  6384 ;; Hardware stack levels used: 1
  6385 ;; This function calls:
  6386 ;;		Nothing
  6387 ;; This function is called by:
  6388 ;;		_InterruptManager
  6389 ;; This function uses a non-reentrant model
  6390 ;;
  6391                           
  6392                           	psect	text28
  6393   002E9C                     __ptext28:
  6394                           	callstack 0
  6395   002E9C                     _RB7_ISR:
  6396                           	callstack 23
  6397                           
  6398                           ;incstack = 0
  6399                           ;RB7_ISR@RB7_Source stored from wreg
  6400   002E9C  6E55               	movwf	RB7_ISR@RB7_Source^0,c
  6401   002E9E                     
  6402                           ;MCAL_layer/Interrupt/mcal_external_interrupt.c: 164:     (INTCONbits.RBIF = 0);
  6403   002E9E  90F2               	bcf	242,0,c	;volatile
  6404   002EA0                     
  6405                           ;MCAL_layer/Interrupt/mcal_external_interrupt.c: 167:     if(0 == RB7_Source){
  6406   002EA0  5055               	movf	RB7_ISR@RB7_Source^0,w,c
  6407   002EA2  A4D8               	btfss	status,2,c
  6408   002EA4  EF56  F017         	goto	i2u64_41
  6409   002EA8  EF58  F017         	goto	i2u64_40
  6410   002EAC                     i2u64_41:
  6411   002EAC  EF5A  F017         	goto	i2l2167
  6412   002EB0                     i2u64_40:
  6413   002EB0  EF5A  F017         	goto	i2l616
  6414   002EB4                     i2l2167:
  6415   002EB4                     i2l616:
  6416   002EB4  0012               	return		;funcret
  6417   002EB6                     __end_of_RB7_ISR:
  6418                           	callstack 0
  6419                           
  6420 ;; *************** function _RB6_ISR *****************
  6421 ;; Defined at:
  6422 ;;		line 143 in file "MCAL_layer/Interrupt/mcal_external_interrupt.c"
  6423 ;; Parameters:    Size  Location     Type
  6424 ;;  RB6_Source      1    wreg     unsigned char 
  6425 ;; Auto vars:     Size  Location     Type
  6426 ;;  RB6_Source      1    0[COMRAM] unsigned char 
  6427 ;; Return value:  Size  Location     Type
  6428 ;;                  1    wreg      void 
  6429 ;; Registers used:
  6430 ;;		wreg, status,2, status,0
  6431 ;; Tracked objects:
  6432 ;;		On entry : 0/0
  6433 ;;		On exit  : 0/0
  6434 ;;		Unchanged: 0/0
  6435 ;; Data sizes:     COMRAM   BANK0   BANK1   BANK2   BANK3   BANK4   BANK5   BANK6   BANK7   BANK8   BANK9  BANK10  BANK1
      +1  BANK12  BANK13  BANK14  BANK15
  6436 ;;      Params:         0       0       0       0       0       0       0       0       0       0       0       0       
      +0       0       0       0       0
  6437 ;;      Locals:         1       0       0       0       0       0       0       0       0       0       0       0       
      +0       0       0       0       0
  6438 ;;      Temps:          0       0       0       0       0       0       0       0       0       0       0       0       
      +0       0       0       0       0
  6439 ;;      Totals:         1       0       0       0       0       0       0       0       0       0       0       0       
      +0       0       0       0       0
  6440 ;;Total ram usage:        1 bytes
  6441 ;; Hardware stack levels used: 1
  6442 ;; This function calls:
  6443 ;;		Nothing
  6444 ;; This function is called by:
  6445 ;;		_InterruptManager
  6446 ;; This function uses a non-reentrant model
  6447 ;;
  6448                           
  6449                           	psect	text29
  6450   002EB6                     __ptext29:
  6451                           	callstack 0
  6452   002EB6                     _RB6_ISR:
  6453                           	callstack 23
  6454                           
  6455                           ;incstack = 0
  6456                           ;RB6_ISR@RB6_Source stored from wreg
  6457   002EB6  6E55               	movwf	RB6_ISR@RB6_Source^0,c
  6458   002EB8                     
  6459                           ;MCAL_layer/Interrupt/mcal_external_interrupt.c: 145:     (INTCONbits.RBIF = 0);
  6460   002EB8  90F2               	bcf	242,0,c	;volatile
  6461   002EBA                     
  6462                           ;MCAL_layer/Interrupt/mcal_external_interrupt.c: 148:     if(0 == RB6_Source){
  6463   002EBA  5055               	movf	RB6_ISR@RB6_Source^0,w,c
  6464   002EBC  A4D8               	btfss	status,2,c
  6465   002EBE  EF63  F017         	goto	i2u63_41
  6466   002EC2  EF65  F017         	goto	i2u63_40
  6467   002EC6                     i2u63_41:
  6468   002EC6  EF67  F017         	goto	i2l2153
  6469   002ECA                     i2u63_40:
  6470   002ECA  EF67  F017         	goto	i2l605
  6471   002ECE                     i2l2153:
  6472   002ECE                     i2l605:
  6473   002ECE  0012               	return		;funcret
  6474   002ED0                     __end_of_RB6_ISR:
  6475                           	callstack 0
  6476                           
  6477 ;; *************** function _RB5_ISR *****************
  6478 ;; Defined at:
  6479 ;;		line 124 in file "MCAL_layer/Interrupt/mcal_external_interrupt.c"
  6480 ;; Parameters:    Size  Location     Type
  6481 ;;  RB5_Source      1    wreg     unsigned char 
  6482 ;; Auto vars:     Size  Location     Type
  6483 ;;  RB5_Source      1    0[COMRAM] unsigned char 
  6484 ;; Return value:  Size  Location     Type
  6485 ;;                  1    wreg      void 
  6486 ;; Registers used:
  6487 ;;		wreg, status,2, status,0
  6488 ;; Tracked objects:
  6489 ;;		On entry : 0/0
  6490 ;;		On exit  : 0/0
  6491 ;;		Unchanged: 0/0
  6492 ;; Data sizes:     COMRAM   BANK0   BANK1   BANK2   BANK3   BANK4   BANK5   BANK6   BANK7   BANK8   BANK9  BANK10  BANK1
      +1  BANK12  BANK13  BANK14  BANK15
  6493 ;;      Params:         0       0       0       0       0       0       0       0       0       0       0       0       
      +0       0       0       0       0
  6494 ;;      Locals:         1       0       0       0       0       0       0       0       0       0       0       0       
      +0       0       0       0       0
  6495 ;;      Temps:          0       0       0       0       0       0       0       0       0       0       0       0       
      +0       0       0       0       0
  6496 ;;      Totals:         1       0       0       0       0       0       0       0       0       0       0       0       
      +0       0       0       0       0
  6497 ;;Total ram usage:        1 bytes
  6498 ;; Hardware stack levels used: 1
  6499 ;; This function calls:
  6500 ;;		Nothing
  6501 ;; This function is called by:
  6502 ;;		_InterruptManager
  6503 ;; This function uses a non-reentrant model
  6504 ;;
  6505                           
  6506                           	psect	text30
  6507   002ED0                     __ptext30:
  6508                           	callstack 0
  6509   002ED0                     _RB5_ISR:
  6510                           	callstack 23
  6511                           
  6512                           ;incstack = 0
  6513                           ;RB5_ISR@RB5_Source stored from wreg
  6514   002ED0  6E55               	movwf	RB5_ISR@RB5_Source^0,c
  6515   002ED2                     
  6516                           ;MCAL_layer/Interrupt/mcal_external_interrupt.c: 126:     (INTCONbits.RBIF = 0);
  6517   002ED2  90F2               	bcf	242,0,c	;volatile
  6518   002ED4                     
  6519                           ;MCAL_layer/Interrupt/mcal_external_interrupt.c: 129:     if(0 == RB5_Source){
  6520   002ED4  5055               	movf	RB5_ISR@RB5_Source^0,w,c
  6521   002ED6  A4D8               	btfss	status,2,c
  6522   002ED8  EF70  F017         	goto	i2u62_41
  6523   002EDC  EF72  F017         	goto	i2u62_40
  6524   002EE0                     i2u62_41:
  6525   002EE0  EF74  F017         	goto	i2l2139
  6526   002EE4                     i2u62_40:
  6527   002EE4  EF74  F017         	goto	i2l594
  6528   002EE8                     i2l2139:
  6529   002EE8                     i2l594:
  6530   002EE8  0012               	return		;funcret
  6531   002EEA                     __end_of_RB5_ISR:
  6532                           	callstack 0
  6533                           
  6534 ;; *************** function _RB4_ISR *****************
  6535 ;; Defined at:
  6536 ;;		line 105 in file "MCAL_layer/Interrupt/mcal_external_interrupt.c"
  6537 ;; Parameters:    Size  Location     Type
  6538 ;;  RB4_Source      1    wreg     unsigned char 
  6539 ;; Auto vars:     Size  Location     Type
  6540 ;;  RB4_Source      1    0[COMRAM] unsigned char 
  6541 ;; Return value:  Size  Location     Type
  6542 ;;                  1    wreg      void 
  6543 ;; Registers used:
  6544 ;;		wreg, status,2, status,0
  6545 ;; Tracked objects:
  6546 ;;		On entry : 0/0
  6547 ;;		On exit  : 0/0
  6548 ;;		Unchanged: 0/0
  6549 ;; Data sizes:     COMRAM   BANK0   BANK1   BANK2   BANK3   BANK4   BANK5   BANK6   BANK7   BANK8   BANK9  BANK10  BANK1
      +1  BANK12  BANK13  BANK14  BANK15
  6550 ;;      Params:         0       0       0       0       0       0       0       0       0       0       0       0       
      +0       0       0       0       0
  6551 ;;      Locals:         1       0       0       0       0       0       0       0       0       0       0       0       
      +0       0       0       0       0
  6552 ;;      Temps:          0       0       0       0       0       0       0       0       0       0       0       0       
      +0       0       0       0       0
  6553 ;;      Totals:         1       0       0       0       0       0       0       0       0       0       0       0       
      +0       0       0       0       0
  6554 ;;Total ram usage:        1 bytes
  6555 ;; Hardware stack levels used: 1
  6556 ;; This function calls:
  6557 ;;		Nothing
  6558 ;; This function is called by:
  6559 ;;		_InterruptManager
  6560 ;; This function uses a non-reentrant model
  6561 ;;
  6562                           
  6563                           	psect	text31
  6564   002EEA                     __ptext31:
  6565                           	callstack 0
  6566   002EEA                     _RB4_ISR:
  6567                           	callstack 23
  6568                           
  6569                           ;incstack = 0
  6570                           ;RB4_ISR@RB4_Source stored from wreg
  6571   002EEA  6E55               	movwf	RB4_ISR@RB4_Source^0,c
  6572   002EEC                     
  6573                           ;MCAL_layer/Interrupt/mcal_external_interrupt.c: 107:     (INTCONbits.RBIF = 0);
  6574   002EEC  90F2               	bcf	242,0,c	;volatile
  6575   002EEE                     
  6576                           ;MCAL_layer/Interrupt/mcal_external_interrupt.c: 110:     if(0 == RB4_Source){
  6577   002EEE  5055               	movf	RB4_ISR@RB4_Source^0,w,c
  6578   002EF0  A4D8               	btfss	status,2,c
  6579   002EF2  EF7D  F017         	goto	i2u61_41
  6580   002EF6  EF7F  F017         	goto	i2u61_40
  6581   002EFA                     i2u61_41:
  6582   002EFA  EF81  F017         	goto	i2l2125
  6583   002EFE                     i2u61_40:
  6584   002EFE  EF81  F017         	goto	i2l583
  6585   002F02                     i2l2125:
  6586   002F02                     i2l583:
  6587   002F02  0012               	return		;funcret
  6588   002F04                     __end_of_RB4_ISR:
  6589                           	callstack 0
  6590                           
  6591 ;; *************** function _INT2_ISR *****************
  6592 ;; Defined at:
  6593 ;;		line 93 in file "MCAL_layer/Interrupt/mcal_external_interrupt.c"
  6594 ;; Parameters:    Size  Location     Type
  6595 ;;		None
  6596 ;; Auto vars:     Size  Location     Type
  6597 ;;		None
  6598 ;; Return value:  Size  Location     Type
  6599 ;;                  1    wreg      void 
  6600 ;; Registers used:
  6601 ;;		None
  6602 ;; Tracked objects:
  6603 ;;		On entry : 0/0
  6604 ;;		On exit  : 0/0
  6605 ;;		Unchanged: 0/0
  6606 ;; Data sizes:     COMRAM   BANK0   BANK1   BANK2   BANK3   BANK4   BANK5   BANK6   BANK7   BANK8   BANK9  BANK10  BANK1
      +1  BANK12  BANK13  BANK14  BANK15
  6607 ;;      Params:         0       0       0       0       0       0       0       0       0       0       0       0       
      +0       0       0       0       0
  6608 ;;      Locals:         0       0       0       0       0       0       0       0       0       0       0       0       
      +0       0       0       0       0
  6609 ;;      Temps:          0       0       0       0       0       0       0       0       0       0       0       0       
      +0       0       0       0       0
  6610 ;;      Totals:         0       0       0       0       0       0       0       0       0       0       0       0       
      +0       0       0       0       0
  6611 ;;Total ram usage:        0 bytes
  6612 ;; Hardware stack levels used: 1
  6613 ;; This function calls:
  6614 ;;		Nothing
  6615 ;; This function is called by:
  6616 ;;		_InterruptManager
  6617 ;; This function uses a non-reentrant model
  6618 ;;
  6619                           
  6620                           	psect	text32
  6621   002F14                     __ptext32:
  6622                           	callstack 0
  6623   002F14                     _INT2_ISR:
  6624                           	callstack 23
  6625   002F14                     
  6626                           ;MCAL_layer/Interrupt/mcal_external_interrupt.c: 95:     (INTCON3bits.INT2IF = 0);
  6627   002F14  92F0               	bcf	240,1,c	;volatile
  6628   002F16  0012               	return		;funcret
  6629   002F18                     __end_of_INT2_ISR:
  6630                           	callstack 0
  6631                           
  6632 ;; *************** function _INT1_ISR *****************
  6633 ;; Defined at:
  6634 ;;		line 84 in file "MCAL_layer/Interrupt/mcal_external_interrupt.c"
  6635 ;; Parameters:    Size  Location     Type
  6636 ;;		None
  6637 ;; Auto vars:     Size  Location     Type
  6638 ;;		None
  6639 ;; Return value:  Size  Location     Type
  6640 ;;                  1    wreg      void 
  6641 ;; Registers used:
  6642 ;;		None
  6643 ;; Tracked objects:
  6644 ;;		On entry : 0/0
  6645 ;;		On exit  : 0/0
  6646 ;;		Unchanged: 0/0
  6647 ;; Data sizes:     COMRAM   BANK0   BANK1   BANK2   BANK3   BANK4   BANK5   BANK6   BANK7   BANK8   BANK9  BANK10  BANK1
      +1  BANK12  BANK13  BANK14  BANK15
  6648 ;;      Params:         0       0       0       0       0       0       0       0       0       0       0       0       
      +0       0       0       0       0
  6649 ;;      Locals:         0       0       0       0       0       0       0       0       0       0       0       0       
      +0       0       0       0       0
  6650 ;;      Temps:          0       0       0       0       0       0       0       0       0       0       0       0       
      +0       0       0       0       0
  6651 ;;      Totals:         0       0       0       0       0       0       0       0       0       0       0       0       
      +0       0       0       0       0
  6652 ;;Total ram usage:        0 bytes
  6653 ;; Hardware stack levels used: 1
  6654 ;; This function calls:
  6655 ;;		Nothing
  6656 ;; This function is called by:
  6657 ;;		_InterruptManager
  6658 ;; This function uses a non-reentrant model
  6659 ;;
  6660                           
  6661                           	psect	text33
  6662   002F18                     __ptext33:
  6663                           	callstack 0
  6664   002F18                     _INT1_ISR:
  6665                           	callstack 23
  6666   002F18                     
  6667                           ;MCAL_layer/Interrupt/mcal_external_interrupt.c: 86:     (INTCON3bits.INT1IF = 0);
  6668   002F18  90F0               	bcf	240,0,c	;volatile
  6669   002F1A  0012               	return		;funcret
  6670   002F1C                     __end_of_INT1_ISR:
  6671                           	callstack 0
  6672                           
  6673 ;; *************** function _INT0_ISR *****************
  6674 ;; Defined at:
  6675 ;;		line 72 in file "MCAL_layer/Interrupt/mcal_external_interrupt.c"
  6676 ;; Parameters:    Size  Location     Type
  6677 ;;		None
  6678 ;; Auto vars:     Size  Location     Type
  6679 ;;		None
  6680 ;; Return value:  Size  Location     Type
  6681 ;;                  1    wreg      void 
  6682 ;; Registers used:
  6683 ;;		None
  6684 ;; Tracked objects:
  6685 ;;		On entry : 0/0
  6686 ;;		On exit  : 0/0
  6687 ;;		Unchanged: 0/0
  6688 ;; Data sizes:     COMRAM   BANK0   BANK1   BANK2   BANK3   BANK4   BANK5   BANK6   BANK7   BANK8   BANK9  BANK10  BANK1
      +1  BANK12  BANK13  BANK14  BANK15
  6689 ;;      Params:         0       0       0       0       0       0       0       0       0       0       0       0       
      +0       0       0       0       0
  6690 ;;      Locals:         0       0       0       0       0       0       0       0       0       0       0       0       
      +0       0       0       0       0
  6691 ;;      Temps:          0       0       0       0       0       0       0       0       0       0       0       0       
      +0       0       0       0       0
  6692 ;;      Totals:         0       0       0       0       0       0       0       0       0       0       0       0       
      +0       0       0       0       0
  6693 ;;Total ram usage:        0 bytes
  6694 ;; Hardware stack levels used: 1
  6695 ;; This function calls:
  6696 ;;		Nothing
  6697 ;; This function is called by:
  6698 ;;		_InterruptManager
  6699 ;; This function uses a non-reentrant model
  6700 ;;
  6701                           
  6702                           	psect	text34
  6703   002F1C                     __ptext34:
  6704                           	callstack 0
  6705   002F1C                     _INT0_ISR:
  6706                           	callstack 23
  6707   002F1C                     
  6708                           ;MCAL_layer/Interrupt/mcal_external_interrupt.c: 74:     (INTCONbits.INT0IF = 0);
  6709   002F1C  92F2               	bcf	242,1,c	;volatile
  6710   002F1E  0012               	return		;funcret
  6711   002F20                     __end_of_INT0_ISR:
  6712                           	callstack 0
  6713                           
  6714                           	psect	text35
  6715   000000                     __ptext35:
  6716                           	callstack 0
  6717   000000                     
  6718                           	psect	rparam
  6719   000000                     
  6720                           	psect	temp
  6721   00007C                     btemp:
  6722                           	callstack 0
  6723   00007C                     	ds	1
  6724   000000                     int$flags	set	btemp
  6725   000000                     wtemp8	set	btemp+1
  6726   000000                     ttemp5	set	btemp+1
  6727   000000                     ttemp6	set	btemp+4
  6728   000000                     ttemp7	set	btemp+8
  6729                           tosu	equ	0xFFF
  6730                           tosh	equ	0xFFE
  6731                           tosl	equ	0xFFD
  6732                           stkptr	equ	0xFFC
  6733                           pclatu	equ	0xFFB
  6734                           pclath	equ	0xFFA
  6735                           pcl	equ	0xFF9
  6736                           tblptru	equ	0xFF8
  6737                           tblptrh	equ	0xFF7
  6738                           tblptrl	equ	0xFF6
  6739                           tablat	equ	0xFF5
  6740                           prodh	equ	0xFF4
  6741                           prodl	equ	0xFF3
  6742                           indf0	equ	0xFEF
  6743                           postinc0	equ	0xFEE
  6744                           postdec0	equ	0xFED
  6745                           preinc0	equ	0xFEC
  6746                           plusw0	equ	0xFEB
  6747                           fsr0h	equ	0xFEA
  6748                           fsr0l	equ	0xFE9
  6749                           wreg	equ	0xFE8
  6750                           indf1	equ	0xFE7
  6751                           postinc1	equ	0xFE6
  6752                           postdec1	equ	0xFE5
  6753                           preinc1	equ	0xFE4
  6754                           plusw1	equ	0xFE3
  6755                           fsr1h	equ	0xFE2
  6756                           fsr1l	equ	0xFE1
  6757                           bsr	equ	0xFE0
  6758                           indf2	equ	0xFDF
  6759                           postinc2	equ	0xFDE
  6760                           postdec2	equ	0xFDD
  6761                           preinc2	equ	0xFDC
  6762                           plusw2	equ	0xFDB
  6763                           fsr2h	equ	0xFDA
  6764                           fsr2l	equ	0xFD9
  6765                           status	equ	0xFD8

Data Sizes:
    Strings     107
    Constant    32
    Data        81
    BSS         41
    Persistent  1
    Stack       0

Auto Spaces:
    Space          Size  Autos    Used
    COMRAM          126     38     123
    BANK0           128      2      40
    BANK1           256      0       0
    BANK2           256      0       0
    BANK3           256      0       0
    BANK4           256      0       0
    BANK5           256      0       0
    BANK6           256      0       0
    BANK7           256      0       0
    BANK8           256      0       0
    BANK9           256      0       0
    BANK10          256      0       0
    BANK11          256      0       0
    BANK12          256      0       0
    BANK13          256      0       0
    BANK14          256      0       0
    BANK15          128      0       0

Pointer List with Targets:

    f$.$buffer	PTR unsigned char  size(2) Largest target is 0

    f$.$source	PTR const unsigned char  size(2) Largest target is 0

    gpio_pin_direction_init@_pin_config	PTR const struct . size(1) Largest target is 10
		 -> keypad_obj(COMRAM[8]), keypad_obj$keypad_c_pins(COMRAM[4]), keypad_obj$keypad_r_pins(COMRAM[4]), lcd_obj(COMRAM[10]), 
		 -> lcd_obj$lcd_data(COMRAM[8]), seven_seg_obj(BANK0[5]), seven_seg_obj$segment_pin(BANK0[4]), 

    gpio_pin_read_logic@_pin_config	PTR const struct . size(1) Largest target is 8
		 -> keypad_obj(COMRAM[8]), keypad_obj$keypad_c_pins(COMRAM[4]), 

    gpio_pin_read_logic@logic	PTR enum E2978 size(1) Largest target is 1
		 -> keypad_get_value@col_logic(COMRAM[1]), 

    gpio_pin_write_logic@_pin_config	PTR const struct . size(1) Largest target is 10
		 -> keypad_obj(COMRAM[8]), keypad_obj$keypad_r_pins(COMRAM[4]), lcd_obj(COMRAM[10]), lcd_obj$lcd_data(COMRAM[8]), 
		 -> seven_seg_obj(BANK0[5]), seven_seg_obj$segment_pin(BANK0[4]), 

    INT0_InterruptHandler	PTR FTN()void  size(2) Largest target is 1
		 -> NULL(), 

    INT1_InterruptHandler	PTR FTN()void  size(2) Largest target is 1
		 -> NULL(), 

    INT2_InterruptHandler	PTR FTN()void  size(2) Largest target is 1
		 -> NULL(), 

    Interrupt_INTx_Clear_Flag@int_obj$EXT_InterruptHandler	PTR FTN()void  size(2) Largest target is 0

    Interrupt_INTx_Disable@int_obj$EXT_InterruptHandler	PTR FTN()void  size(2) Largest target is 0

    Interrupt_INTx_Edge_Init@int_obj$EXT_InterruptHandler	PTR FTN()void  size(2) Largest target is 0

    Interrupt_INTx_Enable@int_obj$EXT_InterruptHandler	PTR FTN()void  size(2) Largest target is 0

    Interrupt_INTx_Pin_Init@int_obj$EXT_InterruptHandler	PTR FTN()void  size(2) Largest target is 0

    Interrupt_INTx_SetInterruptHandler@int_obj$EXT_InterruptHandler	PTR FTN()void  size(2) Largest target is 0

    Interrupt_RBx_Init@int_obj$EXT_InterruptHandler_HIGH	PTR FTN()void  size(2) Largest target is 0

    Interrupt_RBx_Init@int_obj$EXT_InterruptHandler_LOW	PTR FTN()void  size(2) Largest target is 0

    keypad_get_value@keypad_obj	PTR const struct . size(1) Largest target is 8
		 -> keypad_obj(COMRAM[8]), 

    keypad_get_value@value	PTR unsigned char  size(1) Largest target is 1
		 -> keybad_value(COMRAM[1]), 

    keypad_init@keypad_obj	PTR const struct . size(1) Largest target is 8
		 -> keypad_obj(COMRAM[8]), 

    lat_reg	PTR volatile unsigned char [5] size(2) Largest target is 1
		 -> LATA(BITBIGSFRll[1]), LATB(BITBIGSFRlh[1]), LATC(BITBIGSFRlh[1]), LATD(BITBIGSFRlh[1]), 
		 -> LATE(BITBIGSFRlh[1]), 

    lcd_8bit_init@lcd	PTR const struct . size(1) Largest target is 10
		 -> lcd_obj(COMRAM[10]), 

    lcd_8bit_send_char_data@lcd	PTR const struct . size(1) Largest target is 10
		 -> lcd_obj(COMRAM[10]), 

    lcd_8bit_send_char_data_pos@lcd	PTR const struct . size(1) Largest target is 10
		 -> lcd_obj(COMRAM[10]), 

    lcd_8bit_send_command@lcd	PTR const struct . size(1) Largest target is 10
		 -> lcd_obj(COMRAM[10]), 

    lcd_8bit_send_custom_char@_char	PTR const unsigned char  size(1) Largest target is 8
		 -> heart(CODE[8]), smile(CODE[8]), 

    lcd_8bit_send_custom_char@lcd	PTR const struct . size(1) Largest target is 10
		 -> lcd_obj(COMRAM[10]), 

    lcd_8bit_send_enable@lcd	PTR const struct . size(1) Largest target is 10
		 -> lcd_obj(COMRAM[10]), 

    lcd_8bit_send_string@lcd	PTR const struct . size(1) Largest target is 10
		 -> lcd_obj(COMRAM[10]), 

    lcd_8bit_send_string@str	PTR unsigned char  size(1) Largest target is 24
		 -> STR_1(CODE[21]), STR_10(CODE[21]), STR_2(CODE[9]), STR_3(CODE[11]), 
		 -> STR_4(CODE[11]), STR_5(CODE[15]), STR_6(CODE[21]), STR_7(CODE[24]), 
		 -> STR_8(CODE[21]), STR_9(CODE[13]), 

    lcd_8bit_send_string_pos@lcd	PTR const struct . size(1) Largest target is 10
		 -> lcd_obj(COMRAM[10]), 

    lcd_8bit_send_string_pos@str	PTR unsigned char  size(1) Largest target is 24
		 -> STR_1(CODE[21]), STR_10(CODE[21]), STR_2(CODE[9]), STR_3(CODE[11]), 
		 -> STR_4(CODE[11]), STR_5(CODE[15]), STR_6(CODE[21]), STR_7(CODE[24]), 
		 -> STR_8(CODE[21]), STR_9(CODE[13]), 

    lcd_8bit_set_cursor@lcd	PTR const struct . size(1) Largest target is 10
		 -> lcd_obj(COMRAM[10]), 

    port_reg	PTR volatile unsigned char [5] size(2) Largest target is 1
		 -> PORTA(BITBIGSFRll[1]), PORTB(BITBIGSFRll[1]), PORTC(BITBIGSFRll[1]), PORTD(BITBIGSFRll[1]), 
		 -> PORTE(BITBIGSFRll[1]), 

    RB4_InterruptHandler_HIGH	PTR FTN()void  size(2) Largest target is 1
		 -> NULL(), 

    RB4_InterruptHandler_LOW	PTR FTN()void  size(2) Largest target is 1
		 -> NULL(), 

    RB5_InterruptHandler_HIGH	PTR FTN()void  size(2) Largest target is 1
		 -> NULL(), 

    RB5_InterruptHandler_LOW	PTR FTN()void  size(2) Largest target is 1
		 -> NULL(), 

    RB6_InterruptHandler_HIGH	PTR FTN()void  size(2) Largest target is 1
		 -> NULL(), 

    RB6_InterruptHandler_LOW	PTR FTN()void  size(2) Largest target is 1
		 -> NULL(), 

    RB7_InterruptHandler_HIGH	PTR FTN()void  size(2) Largest target is 1
		 -> NULL(), 

    RB7_InterruptHandler_LOW	PTR FTN()void  size(2) Largest target is 1
		 -> NULL(), 

    S1384$Timer1_InterruptHandler	PTR FTN()void  size(2) Largest target is 0

    S2183$buffer	PTR unsigned char  size(2) Largest target is 0

    S2183$source	PTR const unsigned char  size(2) Largest target is 0

    S76$Timer0_InterruptHandler	PTR FTN()void  size(2) Largest target is 1
		 -> tmr0_isr(), 

    S767$EXT_InterruptHandler	PTR FTN()void  size(2) Largest target is 0

    S905$EXT_InterruptHandler_HIGH	PTR FTN()void  size(2) Largest target is 0

    S905$EXT_InterruptHandler_LOW	PTR FTN()void  size(2) Largest target is 0

    seven_segment_init@seg	PTR const struct . size(1) Largest target is 5
		 -> seven_seg_obj(BANK0[5]), 

    sp__memset	PTR void  size(2) Largest target is 0

    Timer0_Init@timer	PTR const struct . size(1) Largest target is 7
		 -> timer0_obj(BANK0[7]), 

    Timer0_Init@timer$Timer0_InterruptHandler	PTR FTN()void  size(2) Largest target is 1
		 -> tmr0_isr(), 

    Timer0_InterruptHandler	PTR FTN()void  size(2) Largest target is 1
		 -> tmr0_isr(), NULL(), 

    Timer0_Mode_Select@timer	PTR const struct . size(1) Largest target is 7
		 -> timer0_obj(BANK0[7]), 

    Timer0_Mode_Select@timer$Timer0_InterruptHandler	PTR FTN()void  size(2) Largest target is 1
		 -> tmr0_isr(), 

    timer0_obj$Timer0_InterruptHandler	PTR FTN()void  size(2) Largest target is 1
		 -> tmr0_isr(), 

    Timer0_prescaler_config@timer	PTR const struct . size(1) Largest target is 7
		 -> timer0_obj(BANK0[7]), 

    Timer0_prescaler_config@timer$Timer0_InterruptHandler	PTR FTN()void  size(2) Largest target is 1
		 -> tmr0_isr(), 

    Timer0_Reg_Size@timer	PTR const struct . size(1) Largest target is 7
		 -> timer0_obj(BANK0[7]), 

    Timer0_Reg_Size@timer$Timer0_InterruptHandler	PTR FTN()void  size(2) Largest target is 1
		 -> tmr0_isr(), 

    Timer1_Init@timer$Timer1_InterruptHandler	PTR FTN()void  size(2) Largest target is 0

    Timer1_InterruptHandler	PTR FTN()void  size(2) Largest target is 1
		 -> NULL(), 

    Timer1_Mode_Select@timer$Timer1_InterruptHandler	PTR FTN()void  size(2) Largest target is 0

    tris_reg	PTR volatile unsigned char [5] size(2) Largest target is 1
		 -> TRISA(BITBIGSFRll[1]), TRISB(BITBIGSFRhlll[1]), TRISC(BITBIGSFRhlll[1]), TRISD(BITBIGSFRhlll[1]), 
		 -> TRISE(BITBIGSFRhlll[1]), 

    vfprintf$0	PTR struct _IO_FILE size(1) Largest target is 12
		 -> sprintf@f(COMRAM[12]), 

    vfprintf$1	PTR const unsigned char  size(1) Largest target is 3
		 -> STR_11(CODE[3]), STR_12(CODE[3]), STR_13(CODE[3]), 

    vfprintf$2	PTR PTR void  size(1) Largest target is 1
		 -> sprintf@ap(COMRAM[1]), 


Critical Paths under _main in COMRAM

    _main->_lcd_8bit_send_custom_char
    _seven_segment_init->_gpio_pin_write_logic
    _lcd_8bit_send_string_pos->_lcd_8bit_set_cursor
    _lcd_8bit_send_string->_lcd_8bit_send_char_data
    _lcd_8bit_send_custom_char->_lcd_8bit_send_char_data_pos
    _lcd_8bit_send_char_data_pos->_lcd_8bit_set_cursor
    _lcd_8bit_set_cursor->_lcd_8bit_send_command
    _lcd_8bit_send_char_data->_lcd_8bit_send_enable
    _lcd_8bit_init->_lcd_8bit_send_command
    _lcd_8bit_send_command->_lcd_8bit_send_enable
    _lcd_8bit_send_enable->_gpio_pin_write_logic
    _keypad_init->_gpio_pin_write_logic
    _keypad_get_value->_gpio_pin_write_logic
    _gpio_port_write_logic->___awdiv
    _Timer0_Init->_Timer0_prescaler_config

Critical Paths under _InterruptManager in COMRAM

    _InterruptManager->_RB4_ISR
    _InterruptManager->_RB5_ISR
    _InterruptManager->_RB6_ISR
    _InterruptManager->_RB7_ISR

Critical Paths under _main in BANK0

    None.

Critical Paths under _InterruptManager in BANK0

    None.

Critical Paths under _main in BANK1

    None.

Critical Paths under _InterruptManager in BANK1

    None.

Critical Paths under _main in BANK2

    None.

Critical Paths under _InterruptManager in BANK2

    None.

Critical Paths under _main in BANK3

    None.

Critical Paths under _InterruptManager in BANK3

    None.

Critical Paths under _main in BANK4

    None.

Critical Paths under _InterruptManager in BANK4

    None.

Critical Paths under _main in BANK5

    None.

Critical Paths under _InterruptManager in BANK5

    None.

Critical Paths under _main in BANK6

    None.

Critical Paths under _InterruptManager in BANK6

    None.

Critical Paths under _main in BANK7

    None.

Critical Paths under _InterruptManager in BANK7

    None.

Critical Paths under _main in BANK8

    None.

Critical Paths under _InterruptManager in BANK8

    None.

Critical Paths under _main in BANK9

    None.

Critical Paths under _InterruptManager in BANK9

    None.

Critical Paths under _main in BANK10

    None.

Critical Paths under _InterruptManager in BANK10

    None.

Critical Paths under _main in BANK11

    None.

Critical Paths under _InterruptManager in BANK11

    None.

Critical Paths under _main in BANK12

    None.

Critical Paths under _InterruptManager in BANK12

    None.

Critical Paths under _main in BANK13

    None.

Critical Paths under _InterruptManager in BANK13

    None.

Critical Paths under _main in BANK14

    None.

Critical Paths under _InterruptManager in BANK14

    None.

Critical Paths under _main in BANK15

    None.

Critical Paths under _InterruptManager in BANK15

    None.

Call Graph Tables:

 ---------------------------------------------------------------------------------
 (Depth) Function   	        Calls       Base Space   Used Autos Params    Refs
 ---------------------------------------------------------------------------------
 (0) _main                                                 2     2      0  208602
                                              0 BANK0      2     2      0
                        _Timer0_Init
                            ___awdiv
                            ___awmod
           _gpio_port_direction_init
              _gpio_port_write_logic
                   _keypad_get_value
                        _keypad_init
                      _lcd_8bit_init
        _lcd_8bit_send_char_data_pos
              _lcd_8bit_send_command
          _lcd_8bit_send_custom_char
           _lcd_8bit_send_string_pos
                 _seven_segment_init
 ---------------------------------------------------------------------------------
 (1) _seven_segment_init                                   2     1      1    9036
                                             11 COMRAM     2     1      1
            _gpio_pin_direction_init
               _gpio_pin_write_logic
 ---------------------------------------------------------------------------------
 (1) _lcd_8bit_send_string_pos                             5     1      4   35207
                                             25 COMRAM     5     1      4
               _lcd_8bit_send_string
                _lcd_8bit_set_cursor
 ---------------------------------------------------------------------------------
 (2) _lcd_8bit_send_string                                 3     1      2   14341
                                             19 COMRAM     3     1      2
            _lcd_8bit_send_char_data
 ---------------------------------------------------------------------------------
 (1) _lcd_8bit_send_custom_char                            8     3      5   66033
                                             30 COMRAM     8     3      5
            _lcd_8bit_send_char_data
        _lcd_8bit_send_char_data_pos
              _lcd_8bit_send_command
 ---------------------------------------------------------------------------------
 (2) _lcd_8bit_send_char_data_pos                          5     1      4   33985
                                             25 COMRAM     5     1      4
            _lcd_8bit_send_char_data
                _lcd_8bit_set_cursor
 ---------------------------------------------------------------------------------
 (2) _lcd_8bit_set_cursor                                  6     3      3   17646
                                             19 COMRAM     6     3      3
              _lcd_8bit_send_command
 ---------------------------------------------------------------------------------
 (3) _lcd_8bit_send_char_data                              6     4      2   14053
                                             13 COMRAM     6     4      2
               _gpio_pin_write_logic
               _lcd_8bit_send_enable
 ---------------------------------------------------------------------------------
 (1) _lcd_8bit_init                                        3     2      1   26592
                                             19 COMRAM     3     2      1
            _gpio_pin_direction_init
               _gpio_pin_write_logic
              _lcd_8bit_send_command
 ---------------------------------------------------------------------------------
 (3) _lcd_8bit_send_command                                6     4      2   16941
                                             13 COMRAM     6     4      2
               _gpio_pin_write_logic
               _lcd_8bit_send_enable
 ---------------------------------------------------------------------------------
 (4) _lcd_8bit_send_enable                                 2     1      1    6807
                                             11 COMRAM     2     1      1
               _gpio_pin_write_logic
 ---------------------------------------------------------------------------------
 (1) _keypad_init                                          4     3      1    9037
                                             11 COMRAM     4     3      1
            _gpio_pin_direction_init
               _gpio_pin_write_logic
 ---------------------------------------------------------------------------------
 (2) _gpio_pin_direction_init                              7     6      1    2079
                                              3 COMRAM     7     6      1
 ---------------------------------------------------------------------------------
 (1) _keypad_get_value                                     8     6      2    8393
                                             11 COMRAM     7     5      2
                _gpio_pin_read_logic
               _gpio_pin_write_logic
 ---------------------------------------------------------------------------------
 (2) _gpio_pin_write_logic                                 8     6      2    6563
                                              3 COMRAM     8     6      2
 ---------------------------------------------------------------------------------
 (2) _gpio_pin_read_logic                                  7     5      2     308
                                              3 COMRAM     7     5      2
 ---------------------------------------------------------------------------------
 (1) _gpio_port_write_logic                                6     5      1    1002
                                             11 COMRAM     4     3      1
                            ___awdiv (ARG)
                            ___awmod (ARG)
 ---------------------------------------------------------------------------------
 (1) _gpio_port_direction_init                             6     5      1     166
                                              3 COMRAM     4     3      1
 ---------------------------------------------------------------------------------
 (1) ___awmod                                              6     2      4     752
                                              3 COMRAM     6     2      4
 ---------------------------------------------------------------------------------
 (1) ___awdiv                                              8     4      4     756
                                              3 COMRAM     8     4      4
 ---------------------------------------------------------------------------------
 (1) _Timer0_Init                                          4     3      1     702
                                              5 COMRAM     4     3      1
                 _Timer0_Mode_Select
                    _Timer0_Reg_Size
            _Timer0_prescaler_config
 ---------------------------------------------------------------------------------
 (2) _Timer0_prescaler_config                              2     1      1     142
                                              3 COMRAM     2     1      1
 ---------------------------------------------------------------------------------
 (2) _Timer0_Reg_Size                                      1     0      1     120
                                              3 COMRAM     1     0      1
 ---------------------------------------------------------------------------------
 (2) _Timer0_Mode_Select                                   1     0      1     164
                                              3 COMRAM     1     0      1
 ---------------------------------------------------------------------------------
 Estimated maximum stack depth 4
 ---------------------------------------------------------------------------------
 (Depth) Function   	        Calls       Base Space   Used Autos Params    Refs
 ---------------------------------------------------------------------------------
 (7) _InterruptManager                                     2     2      0     120
                                              1 COMRAM     2     2      0
                           _INT0_ISR
                           _INT1_ISR
                           _INT2_ISR
                            _RB4_ISR
                            _RB5_ISR
                            _RB6_ISR
                            _RB7_ISR
                           _TMR0_ISR
                           _TMR1_ISR
 ---------------------------------------------------------------------------------
 (8) _TMR1_ISR                                             0     0      0       0
 ---------------------------------------------------------------------------------
 (8) _TMR0_ISR                                             0     0      0       0
                                NULL *
                           _tmr0_isr *
 ---------------------------------------------------------------------------------
 (9) _tmr0_isr                                             0     0      0       0
 ---------------------------------------------------------------------------------
 (9) NULL(Fake)                                            0     0      0       0
 ---------------------------------------------------------------------------------
 (8) _RB7_ISR                                              1     1      0      30
                                              0 COMRAM     1     1      0
 ---------------------------------------------------------------------------------
 (8) _RB6_ISR                                              1     1      0      30
                                              0 COMRAM     1     1      0
 ---------------------------------------------------------------------------------
 (8) _RB5_ISR                                              1     1      0      30
                                              0 COMRAM     1     1      0
 ---------------------------------------------------------------------------------
 (8) _RB4_ISR                                              1     1      0      30
                                              0 COMRAM     1     1      0
 ---------------------------------------------------------------------------------
 (8) _INT2_ISR                                             0     0      0       0
 ---------------------------------------------------------------------------------
 (8) _INT1_ISR                                             0     0      0       0
 ---------------------------------------------------------------------------------
 (8) _INT0_ISR                                             0     0      0       0
 ---------------------------------------------------------------------------------
 Estimated maximum stack depth 9
 ---------------------------------------------------------------------------------

 Call Graph Graphs:

 _main (ROOT)
   _Timer0_Init
     _Timer0_Mode_Select
     _Timer0_Reg_Size
     _Timer0_prescaler_config
   ___awdiv
   ___awmod
   _gpio_port_direction_init
   _gpio_port_write_logic
     ___awdiv (ARG)
     ___awmod (ARG)
   _keypad_get_value
     _gpio_pin_read_logic
     _gpio_pin_write_logic
   _keypad_init
     _gpio_pin_direction_init
     _gpio_pin_write_logic
   _lcd_8bit_init
     _gpio_pin_direction_init
     _gpio_pin_write_logic
     _lcd_8bit_send_command
       _gpio_pin_write_logic
       _lcd_8bit_send_enable
         _gpio_pin_write_logic
   _lcd_8bit_send_char_data_pos
     _lcd_8bit_send_char_data
       _gpio_pin_write_logic
       _lcd_8bit_send_enable
     _lcd_8bit_set_cursor
       _lcd_8bit_send_command
   _lcd_8bit_send_command
   _lcd_8bit_send_custom_char
     _lcd_8bit_send_char_data
     _lcd_8bit_send_char_data_pos
     _lcd_8bit_send_command
   _lcd_8bit_send_string_pos
     _lcd_8bit_send_string
       _lcd_8bit_send_char_data
     _lcd_8bit_set_cursor
   _seven_segment_init
     _gpio_pin_direction_init
     _gpio_pin_write_logic

 _InterruptManager (ROOT)
   _INT0_ISR
   _INT1_ISR
   _INT2_ISR
   _RB4_ISR
   _RB5_ISR
   _RB6_ISR
   _RB7_ISR
   _TMR0_ISR
     NULL(Fake) *
     _tmr0_isr *
   _TMR1_ISR

 Address spaces:
Name               Size   Autos  Total    Cost      Usage
BIGRAM             F7F      0       0      44        0.0%
EEDATA             400      0       0       0        0.0%
BITBANK14          100      0       0      33        0.0%
BANK14             100      0       0      34        0.0%
BITBANK13          100      0       0      31        0.0%
BANK13             100      0       0      32        0.0%
BITBANK12          100      0       0      29        0.0%
BANK12             100      0       0      30        0.0%
BITBANK11          100      0       0      27        0.0%
BANK11             100      0       0      28        0.0%
BITBANK10          100      0       0      25        0.0%
BANK10             100      0       0      26        0.0%
BITBANK9           100      0       0      23        0.0%
BANK9              100      0       0      24        0.0%
BITBANK8           100      0       0      21        0.0%
BANK8              100      0       0      22        0.0%
BITBANK7           100      0       0      19        0.0%
BANK7              100      0       0      20        0.0%
BITBANK6           100      0       0      17        0.0%
BANK6              100      0       0      18        0.0%
BITBANK5           100      0       0      15        0.0%
BANK5              100      0       0      16        0.0%
BITBANK4           100      0       0      13        0.0%
BANK4              100      0       0      14        0.0%
BITBANK3           100      0       0      10        0.0%
BANK3              100      0       0      11        0.0%
BITBANK2           100      0       0       8        0.0%
BANK2              100      0       0       9        0.0%
BITBANK1           100      0       0       6        0.0%
BANK1              100      0       0       7        0.0%
BITBANK15           80      0       0      35        0.0%
BANK15              80      0       0      36        0.0%
BITBANK0            80      0       0       4        0.0%
BANK0               80      2      28       5       31.2%
BITCOMRAM           7E      0       0       0        0.0%
COMRAM              7E     26      7B       1       97.6%
BITBIGSFRhllhl      2E      0       0      40        0.0%
BITBIGSFRhllhhh     18      0       0      38        0.0%
BITBIGSFRhh          D      0       0      37        0.0%
BITBIGSFRhlll        6      0       0      41        0.0%
BITBIGSFRhllhhh      5      0       0      39        0.0%
BITBIGSFRlh          4      0       0      42        0.0%
BITBIGSFRll          4      0       0      43        0.0%
BIGSFR               0      0       0     200        0.0%
BITSFR               0      0       0     200        0.0%
SFR                  0      0       0     200        0.0%
STACK                0      0       0       2        0.0%
NULL                 0      0       0       0        0.0%
ABS                  0      0      A3      12        0.0%
DATA                 0      0      A3       3        0.0%
CODE                 0      0       0       0        0.0%


Microchip Technology PIC18 Macro Assembler V2.45 build 20230818022343 
Symbol Table                                                                                   Wed Jul 31 17:42:39 2024

                 ??_InterruptManager 0056                                   l83 13EC  
                                 l75 1286                                   l76 12B6  
                                 l95 165E                                   l89 1500  
                       ___awdiv@sign 005D           keypad_get_value@keypad_obj 0060  
                        fp__tmr0_isr 0000                                  l101 1772  
                                l113 19E4                                  l107 18D0  
                                l150 29B0                                  l119 1CDC  
                                l321 2D28                                  l164 251C  
                                l420 232E                                  l333 2748  
                                l262 2AA2                                  l255 2B18  
                                l248 2208                                  l354 2698  
                                l267 2D64                                  l291 2A2C  
                                l284 2CEA                                  l277 2BF8  
                                l470 2D9E                                  l446 289C  
                                l439 243E                                  l458 2DD8  
                                l908 2B8E                                  l916 2E12  
                                l909 2B8E                                  l870 292A  
                                l868 28BA                                  l898 2CA0  
          _RB5_InterruptHandler_HIGH 003E                                  _ret 007B  
                       ___awmod@sign 005D            ?_lcd_8bit_send_string_pos 006E  
                                tosl 0FFD                                  wreg 0FE8  
       __end_of_lcd_8bit_send_enable 2D2A          __end_of_lcd_8bit_set_cursor 274A  
                    __end_of_RB4_ISR 2F04                      __end_of_RB5_ISR 2EEA  
                    __end_of_RB6_ISR 2ED0                      __end_of_RB7_ISR 2EB6  
       __end_of_lcd_8bit_send_string 2BFA                                 l1150 25E0  
                               l1163 27F8                                 l3411 2330  
                               l5011 2720                                 l3413 2344  
                               l5013 2316                                 l3501 26BC  
                               l5015 2426                                 l3423 2412  
                               l3415 2364                                 l3503 26D0  
                               l3511 270C                                 l3417 236C  
                               l3425 243C                                 l3441 2D18  
                               l3433 2CEC                                 l3505 26E4  
                               l3513 2746                                 l3521 2D2A  
                               l3419 23C2                                 l3531 220A  
                               l3443 2D26                                 l3435 2CFC  
                               l3451 2AC0                                 l3507 26F8  
                               l3523 2D3A                                 l3611 2BB4  
                               l3533 221E                                 l3701 299E  
                               l3437 2D04                                 l3461 2AFA  
                               l3453 2ACC                                 l3525 2D42  
                               l3613 2BBC                                 l3631 2C9E  
                               l3623 2C50                                 l3543 22EC  
                               l3535 223E                                 l3703 29AE  
                               l3439 2D10                                 l3463 2AFC  
                               l3447 2AA4                                 l3471 2A2E  
                               l3527 2D62                                 l3615 2BD6  
                               l3607 2B90                                 l3711 25FA  
                               l3641 2B52                                 l3633 2B1A  
                               l3625 2C68                                 l3721 28BC  
                               l3561 2846                                 l3553 27FA  
                               l3801 247C                                 l3537 2246  
                               l3545 232C                                 l3465 2B0C  
                               l3449 2AB8                                 l3473 2A42  
                               l3617 2BD8                                 l3609 2BA4  
                               l3713 2696                                 l3643 2B6A  
                               l3635 2B32                                 l3651 2DF2  
                               l3627 2C6A                                 l3731 2912  
                               l3723 28D4                                 l3563 289A  
                               l3555 280E                                 l3803 248A  
                               l3539 229C                                 l3459 2AD0  
                               l3467 2B16                                 l3483 2A5A  
                               l3491 2AA0                                 l3475 2A4A  
                               l3619 2BF6                                 l3707 25E2  
                               l3645 2B70                                 l3637 2B38  
                               l3653 2DF8                                 l3629 2C86  
                               l3733 2914                                 l3725 28F0  
                               l3741 2928                                 l3717 289E  
                               l3901 251E                                 l3557 281E  
                               l3821 24F0                                 l3805 248C  
                               l3661 1FD2                                 l3485 2A84  
                               l3477 2A56                                 l3709 25F2  
                               l4701 1300                                 l3647 2B88  
                               l3639 2B50                                 l3655 2E10  
                               l3735 2922                                 l3727 28FE  
                               l3719 28B2                                 l3911 254A  
                               l3903 2522                                 l3751 2DB6  
                               l3559 283E                                 l3823 24F2  
                               l3815 24AE                                 l3807 249C  
                               l3831 2514                                 l3663 216A  
                               l3671 2206                                 l3487 2A86  
                               l3495 269A                                 l4711 1350  
                               l4703 1304                                 l4631 10B6  
                               l3649 2DDA                                 l3737 2924  
                               l3729 2910                                 l3921 2578  
                               l3913 2552                                 l3905 2530  
                               l3753 2DD6                                 l3745 2DA2  
                               l3825 2502                                 l3817 24BE  
                               l3809 24AA                                 l3665 2178  
                               l3657 1FBA                                 l3489 2A96  
                               l3497 26AE                                 l3841 29E0  
                               l3761 2CC2                                 l4801 1640  
                               l4721 13AA                                 l4713 1362  
                               l4705 131E                                 l4641 1114  
                               l4633 10C2                                 l3739 2926  
                               l3931 25B2                                 l3923 2580  
                               l3915 2556                                 l3907 2538  
                               l3747 2DA2                                 l3771 2D68  
                               l3827 2504                                 l3819 24CE  
                               l3691 298A                                 l3675 292C  
                               l3667 2192                                 l3659 1FCA  
                               l3499 26B6                                 l3851 2A04  
                               l3835 29B2                                 l3763 2CCA  
                               l4811 1686                                 l4803 1652  
                               l4731 13FC                                 l4723 13BC  
                               l4715 1374                                 l4707 132C  
                               l4651 117A                                 l4643 1120  
                               l4635 10D8                                 l4627 108E  
                               l3941 25D8                                 l3933 25B4  
                               l3925 258E                                 l3917 255E  
                               l3909 253C                                 l3749 2DB2  
                               l3773 2D68                                 l3829 2514  
                               l3685 2950                                 l3677 2944  
                               l3669 219E                                 l3853 2A14  
                               l3837 29C6                                 l3765 2CDA  
                               l3757 2CA2                                 l4901 196C  
                               l4821 16D6                                 l4813 168A  
                               l4805 165A                                 l4741 1440  
                               l4733 1410                                 l4725 13CE  
                               l4717 1386                                 l4709 133E  
                               l4661 11D4                                 l4653 118C  
                               l4645 113E                                 l4637 10E4  
                               l4629 10AC                                 l3935 25BA  
                               l3927 2594                                 l3919 2570  
                               l3951 2764                                 l3775 2D78  
                               l3783 2440                                 l3687 2978  
                               l3679 294C                                 l3847 29E4  
                               l3855 2A2A                                 l3839 29CE  
                               l3767 2CE8                                 l3759 2CB2  
                               l4911 19C6                                 l4903 197E  
                               l4831 1730                                 l4823 16E8  
                               l4815 16A4                                 l4807 166E  
                               l4751 149A                                 l4743 1452  
                               l4735 1414                                 l4719 1398  
                               l4727 13E0                                 l4671 1240  
                               l4663 11F2                                 l4655 1198  
                               l4647 1150                                 l4639 1102  
                               l3929 25AA                                 l3937 25C0  
                               l3961 2798                                 l3953 2768  
                               l3945 274A                                 l3777 2D7C  
                               l3785 2460                                 l3697 298E  
                               l3689 297A                                 l3849 2A02  
                               l4921 1A22                                 l4905 1990  
                               l4913 19D8                                 l4841 1782  
                               l4833 1742                                 l4825 16FA  
                               l4817 16B2                                 l4809 1682  
                               l4753 14AC                                 l4745 1464  
                               l4761 14F4                                 l4737 1418  
                               l4729 13E8                                 l4681 126E  
                               l4673 1252                                 l4665 1204  
                               l4657 11B6                                 l4649 115C  
                               l3939 25D0                                 l3971 27D2  
                               l3963 27A0                                 l3955 2776  
                               l3947 274E                                 l3779 2D9C  
                               l3795 2478                                 l3787 2470  
                               l3699 299C                                 l4931 1A6C  
                               l4923 1A2E                                 l4915 19E0  
                               l4907 19A2                                 l4851 17E0  
                               l4843 1796                                 l4835 1754  
                               l4827 170C                                 l4819 16C4  
                               l4771 154A                                 l4763 14FC  
                               l4755 14BE                                 l4747 1476  
                               l4739 1432                                 l4691 12B2  
                               l4683 1270                                 l4675 1256  
                               l4667 1210                                 l4659 11C8  
                               l3965 27AE                                 l3973 27D8  
                               l3957 277E                                 l3949 275C  
                               l3789 2474                                 l4941 1AC4  
                               l4933 1A82                                 l4925 1A3C  
                               l4917 19F4                                 l4909 19B4  
                               l4861 1822                                 l4853 17E4  
                               l4845 17B0                                 l4829 171E  
                               l4837 1766                                 l4781 1590  
                               l4773 1558                                 l4765 1510  
                               l4757 14D0                                 l4749 1488  
                               l4693 12C6                                 l4685 1282  
                               l4677 1258                                 l4669 122E  
                               l3975 27E8                                 l3967 27C4  
                               l3959 2790                                 l4951 1B42  
                               l4943 1AC8                                 l4935 1A9C  
                               l4927 1A4C                                 l4919 1A08  
                               l4871 187C                                 l4863 1834  
                               l4855 17E8                                 l4847 17BC  
                               l4839 176E                                 l4791 15E6  
                               l4783 159E                                 l4775 156E  
                               l4767 1524                                 l4759 14E2  
                               l4695 12D8                                 l4687 1292  
                               l4679 126A                                 l3977 27F0  
                               l3969 27CC                                 l4961 1B88  
                               l4953 1B58                                 l4937 1AAA  
                               l4945 1AD0                                 l4929 1A5C  
                               l4881 18CC                                 l4873 188E  
                               l4865 1846                                 l4857 1802  
                               l4849 17CA                                 l4793 15F8  
                               l4785 15B0                                 l4777 1572  
                               l4769 153E                                 l4697 12E6  
                               l4689 12A0                                 l4971 1BE2  
                               l4963 1B9A                                 l4955 1B5C  
                               l4947 1B1A                                 l4939 1AC0  
                               l4891 1916                                 l4883 18E0  
                               l4875 18A0                                 l4867 1858  
                               l4859 1810                                 l4795 160A  
                               l4787 15C2                                 l4779 1576  
                               l4699 12FC                                 l4981 1C3C  
                               l4973 1BF4                                 l4965 1BAC  
                               l4949 1B34                                 l4893 1924  
                               l4885 18F4                                 l4877 18B2  
                               l4869 186A                                 l4797 161C  
                               l4789 15D4                                 l4957 1B64  
                               l4991 1C96                                 l4983 1C4E  
                               l4975 1C06                                 l4967 1BBE  
                               l4959 1B76                                 l4895 1936  
                               l4887 18F8                                 l4879 18C4  
                               l4799 162E                                 l4993 1CB0  
                               l4985 1C60                                 l4977 1C18  
                               l4969 1BD0                                 l4897 1948  
                               l4889 18FC                                 l4995 1CB4  
                               l4979 1C2A                                 l4987 1C72  
                               l4899 195A                                 l4997 1CC2  
                               l4989 1C80                                 STR_1 1039  
                               STR_2 1080                                 STR_3 1075  
                               STR_4 106A                                 STR_5 104E  
                               STR_6 1039                                 STR_7 1021  
                               STR_8 1039                                 STR_9 105D  
                               u3000 26AE                                 u3001 26AA  
                               u3010 2D3A                                 u3011 2D36  
                               u3100 283E                                 u3020 221E  
                               u3101 283A                                 u3021 221A  
                               _LATA 0F89                                 u3030 223E  
                               _LATB 0F8A                                 u3031 223A  
                               _LATC 0F8B                                 u3200 2B32  
                               _LATD 0F8C                                 u3201 2B2E  
                               _LATE 0F8D                                 u3210 2B50  
                               u3114 288E                                 u3211 2B4C  
                               u3115 288A                                 u3220 2B6A  
                               u3060 2302                                 u3044 2264  
                               u3300 25F2                                 u3221 2B66  
                               u3061 22FC                                 u3045 2260  
                               u3301 25EE                                 u3230 2B88  
                               u3310 28B2                                 u3070 2304  
                               u3054 22BA                                 u3150 2BA4  
                               u3231 2B84                                 u3311 28AE  
                               u3055 22B6                                 u3151 2BA0  
                               u3240 2DF2                                 u3320 2DB2  
                               u3080 280E                                 u3400 2502  
                               u3160 2BB4                                 u5000 13E0  
                               u3241 2DEE                                 u3321 2DAE  
                               u3081 280A                                 u3401 24FE  
                               u3161 2BB0                                 u5001 13DC  
                               u3250 2E10                                 u3090 281E  
                               u3410 2514                                 u3170 2BF6  
                               u3330 2CB2                                 u5010 13FC  
                               u3251 2E0C                                 u3091 281A  
                               u3411 2510                                 u3171 2BF2  
                               u3331 2CAE                                 u5011 13F8  
                               u3180 2C68                                 u3500 254A  
                               u3260 1FCA                                 u3420 29C6  
                               u3340 2CC2                                 u5100 14E2  
                               u5020 1452                                 u3181 2C64  
                               u3501 2546                                 u3261 1FC6  
                               u3421 29C2                                 u3341 2CBE  
                               u5101 14DE                                 u5021 144E  
                               u3190 2C9E                                 u3510 2570  
                               u3350 2D78                                 u3270 2944  
                               u3430 2A14                                 u5110 14F4  
                               u5030 1464                                 u3191 2C9A  
                               u3511 256C                                 u3351 2D74  
                               u3271 2940                                 u3431 2A10  
                               u5111 14F0                                 u5031 1460  
                               u3520 258E                                 u3600 27E8  
                               u3360 2460                                 u3280 298A  
                               u5200 162E                                 u5120 1510  
                               u5040 1476                                 u3521 258A  
                               u3601 27E4                                 u3361 245C  
                               u3281 2986                                 u5201 162A  
                               u5121 150C                                 u5041 1472  
                               u3530 25AA                                 u3370 2470  
                               u3290 29AE                                 u5210 1640  
                               u5130 15B0                                 u5050 1488  
                               u3531 25A6                                 u3371 246C  
                               u3291 29AA                                 u5211 163C  
                               u5131 15AC                                 u5051 1484  
                               u3540 25D0                                 u2900 2364  
                               u3380 249C                                 u5300 1730  
                               u5220 1652                                 u5140 15C2  
                               u5060 149A                                 u3541 25CC  
                               u2901 2360                                 u3381 2498  
                               u5301 172C                                 u5221 164E  
                               u5141 15BE                                 u5061 1496  
                               u3550 275C                                 u3390 24CE  
                               u5310 1742                                 u5230 166E  
                               u5150 15D4                                 u5070 14AC  
                               u3551 2758                                 u3391 24CA  
                               u5311 173E                                 u5231 166A  
                               u5151 15D0                                 u5071 14A8  
                               u3560 2776                                 u5400 187C  
                               u5320 1754                                 u5240 16C4  
                               u5160 15E6                                 u5080 14BE  
                               u3561 2772                                 u5401 1878  
                               u5321 1750                                 u5241 16C0  
                               u5161 15E2                                 u5081 14BA  
                               u3490 2530                                 u3570 2790  
                               u2914 238A                                 u2930 2CFC  
                               u5410 188E                                 u5330 1766  
                               u5250 16D6                                 u5170 15F8  
                               u5090 14D0                                 u3491 252C  
                               u3571 278C                                 u2915 2386  
                               u2931 2CF8                                 u5411 188A  
                               u5331 1762                                 u5251 16D2  
                               u5171 15F4                                 u5091 14CC  
                               u3580 27AE                                 u2924 23E0  
                               u2940 2AB8                                 u5500 197E  
                               u5420 18A0                                 u5340 1782  
                               u5260 16E8                                 u5180 160A  
                               u3581 27AA                                 u2925 23DC  
                               u2941 2AB4                                 u5501 197A  
                               u5421 189C                                 u5341 177E  
                               u5261 16E4                                 u5181 1606  
                               u3590 27C4                                 u5510 1990  
                               u5430 18B2                                 u5350 1822  
                               u5270 16FA                                 u5190 161C  
                               u3591 27C0                                 u5511 198C  
                               u5431 18AE                                 u5351 181E  
                               u5271 16F6                                 u5191 1618  
                               u2960 2B0C                                 u5600 1B76  
                               u5520 19A2                                 u5440 18C4  
                               u5360 1834                                 u5280 170C  
                               u2961 2B08                                 u5601 1B72  
                               u5521 199E                                 u5441 18C0  
                               u5361 1830                                 u5281 1708  
                               u2890 2344                                 u2954 2AEA  
                               u2970 2A42                                 u5610 1B88  
                               u5530 19B4                                 u5450 18E0  
                               u5370 1846                                 u5290 171E  
                               u2891 2340                                 u2955 2AE6  
                               u2971 2A3E                                 u5611 1B84  
                               u5531 19B0                                 u5451 18DC  
                               u5371 1842                                 u5291 171A  
                               u5700 1C2A                                 u5620 1B9A  
                               u5540 19C6                                 u5460 1936  
                               u5380 1858                                 u4900 12D8  
                               u5701 1C26                                 u5621 1B96  
                               u5541 19C2                                 u5461 1932  
                               u5381 1854                                 u4901 12D4  
                               u2990 2A96                                 u5710 1C3C  
                               u5630 1BAC                                 u5550 19D8  
                               u5470 1948                                 u5390 186A  
                               u4910 133E                                 u2991 2A92  
                               u5711 1C38                                 u5631 1BA8  
                               u5551 19D4                                 u5471 1944  
                               u5391 1866                                 u4911 133A  
                               u2984 2A74                                 u5720 1C4E  
                               u5640 1BBE                                 u5560 19F4  
                               u5480 195A                                 u4920 1350  
                               u2985 2A70                                 u5721 1C4A  
                               u5641 1BBA                                 u5561 19F0  
                               u5481 1956                                 u4921 134C  
                               u5730 1C60                                 u5650 1BD0  
                               u5570 1A4C                                 u5490 196C  
                               u4930 1362                                 u4850 1252  
                               u5731 1C5C                                 u5651 1BCC  
                               u5571 1A48                                 u5491 1968  
                               u4931 135E                                 u4851 124E  
                               u5740 1C72                                 u5660 1BE2  
                               u5580 1A5C                                 u4940 1374  
                               u4860 126A                                 u5741 1C6E  
                               u5661 1BDE                                 u5581 1A58  
                               u4941 1370                                 u4861 1266  
                               u5670 1BF4                                 u5590 1A6C  
                               u4950 1386                                 u4870 1282  
                               u5671 1BF0                                 u5591 1A68  
                               u4951 1382                                 u4871 127E  
                               u5807 1236                                 u5680 1C06  
                               u4960 1398                                 u4880 12B2  
                               u5681 1C02                                 u4961 1394  
                               u5817 1310                                 u4881 12AE  
                               u5690 1C18                                 u4970 13AA  
                               u4890 12C6                                 u5691 1C14  
                               u5907 1A8E                                 u5827 1424  
                               u4971 13A6                                 u4891 12C2  
                               u4980 13BC                                 u5917 1B26  
                               u5837 1530                                 u4981 13B8  
                               u5757 110A                                 u4990 13CE  
                               u5927 1CA2                                 u5847 1582  
                               u4991 13CA                                 u5767 1146  
                               u5937 2170                                 u5857 1696  
                               u5777 1182                                 u5947 218A  
                               u5867 17A2                                 u5787 11BE  
                               u5957 21A0                                 u5877 17F4  
                               u5797 11FA                                 u5967 2D12  
                               u5887 1908                                 u5897 1A14  
           _RB4_InterruptHandler_LOW 0040       gpio_pin_read_logic@_pin_config 0058  
                               _main 108E             _RB7_InterruptHandler_LOW 0034  
                               fsr1h 0FE2                                 fsr2h 0FDA  
                               indf1 0FE7                                 indf2 0FDF  
                               fsr1l 0FE1                                 fsr2l 0FD9  
           ?_gpio_pin_direction_init 0058                                 btemp 007C  
                               prodl 0FF3                                 start 000E  
      __end_of_lcd_8bit_send_command 2B1A                         ___param_bank 0000  
              _gpio_port_write_logic 2D66                 _gpio_pin_write_logic 2330  
                   __end_of_INT0_ISR 2F20                     __end_of_INT1_ISR 2F1C  
                   __end_of_INT2_ISR 2F18                                ?_main 0055  
                    __end_of___awdiv 25E2                                STR_10 1039  
                              STR_11 1089                      __end_of___awmod 27FA  
                    ___awdiv@divisor 005A                                i2l129 2F12  
                              i2l605 2ECE                                i2l616 2EB4  
                              i2l562 2F1E                                i2l572 2F16  
                              i2l567 2F1A                                i2l583 2F02  
                              i2l594 2EE8                                i2l771 1D4E  
                              i2l781 1E5A                                i2l773 1D6E  
                              i2l847 2F0E                                i2l783 1E9E  
                              i2l775 1D8E                                i2l767 1D0E  
                              i2l792 1FAE                                i2l785 1EE2  
                              i2l777 1DD2                                i2l769 1D2E  
                              i2l891 2E48                                i2l787 1F26  
                              i2l779 1E16                      ___awdiv@counter 005C  
                              i2l789 1F6A                                _TMR0H 0FD7  
                              _TMR1H 0FCF                                _TMR0L 0FD6  
                              _TMR1L 0FCE                                _PORTA 0F80  
                              _PORTB 0F81                                _PORTC 0F82  
                              _PORTD 0F83                                _PORTE 0F84  
                              _TRISA 0F92                                _TRISB 0F93  
                              _TRISC 0F94                                _TRISD 0F95  
                              _TRISE 0F96          ??_lcd_8bit_send_custom_char 0078  
           __end_of_keypad_get_value 251E                     __end_of_TMR0_ISR 2E4A  
                   __end_of_TMR1_ISR 2F10                                _heart 1011  
                       ?_keypad_init 0060      __end_of_Timer0_prescaler_config 2CA2  
                              _hours 004F                                _value 004B  
                  ??_Timer0_Reg_Size 0059                                _smile 1019  
           ?_lcd_8bit_send_char_data 0062  __end_of_lcd_8bit_send_char_data_pos 2D66  
        _lcd_8bit_send_char_data_pos 2D2A                                pclath 0FFA  
                              pclatu 0FFB                                tablat 0FF5  
  gpio_port_direction_init@direction 0058                                ttemp5 007D  
                              ttemp6 0080                                ttemp7 0084  
                              status 0FD8                                wtemp8 007D  
      ??_lcd_8bit_send_char_data_pos 0072                 Timer0_Reg_Size@timer 0058  
                    __initialization 2BFA                         __end_of_main 1CE4  
          ?_gpio_port_direction_init 0058                ?_gpio_pin_write_logic 0058  
             lcd_8bit_set_cursor@lcd 0068               lcd_8bit_set_cursor@ret 006D  
             lcd_8bit_set_cursor@row 0069             gpio_pin_read_logic@logic 0059  
          keypad_get_value@c_counter 0066                               ??_main 00A6  
                      __activetblptr 0003                            ??_RB4_ISR 0055  
                          ??_RB5_ISR 0055                            ??_RB6_ISR 0055  
                          ??_RB7_ISR 0055                     ___awdiv@dividend 0058  
                             i2l2111 2F14                               i2l2105 2F18  
                             i2l2131 2ED2                               i2l2125 2F02  
                             i2l2117 2EEC                               i2l2133 2ED4  
                             i2l2221 2E1E                               i2l2119 2EEE  
                             i2l2223 2E30                               i2l2215 2E14  
                             i2l2153 2ECE                               i2l2145 2EB8  
                             i2l2161 2EA0                               i2l2217 2E16  
                             i2l2225 2F04                               i2l3201 1D3C  
                             i2l2139 2EE8                               i2l2147 2EBA  
                             i2l2219 2E1A                               i2l2227 2F06  
                             i2l3211 1D8A                               i2l3203 1D4A  
                             i2l2229 2F0A                               i2l3221 1DCC  
                             i2l3213 1D9C                               i2l3205 1D5C  
                             i2l2167 2EB4                               i2l2159 2E9E  
                             i2l3231 1E10                               i2l3223 1DE0  
                             i2l3215 1DAA                               i2l3207 1D6A  
                             i2l3241 1E54                               i2l3233 1E24  
                             i2l3225 1DEE                               i2l3217 1DB8  
                             i2l3209 1D7C                               i2l2099 2F1C  
                             i2l3251 1E98                               i2l3243 1E68  
                             i2l3235 1E32                               i2l3227 1DFC  
                             i2l3219 1DC8                               i2l1725 2F10  
                             i2l3261 1EDC                               i2l3253 1EAC  
                             i2l3245 1E76                               i2l3237 1E40  
                             i2l3229 1E0C                               i2l3271 1F20  
                             i2l3263 1EF0                               i2l3255 1EBA  
                             i2l3247 1E84                               i2l3239 1E50  
                             i2l3191 1CEE                               i2l3281 1F64  
                             i2l3273 1F34                               i2l3265 1EFE  
                             i2l3257 1EC8                               i2l3249 1E94  
                             i2l3193 1CFC                               i2l3291 1FA8  
                             i2l3283 1F78                               i2l3275 1F42  
                             i2l3267 1F0C                               i2l3259 1ED8  
                             i2l3195 1D0A                               i2l3285 1F86  
                             i2l3277 1F50                               i2l3269 1F1C  
                             i2l3197 1D1C                               i2l3287 1F94  
                             i2l3279 1F60                               i2l3199 1D2A  
                             i2l3289 1FA4            keypad_get_value@col_logic 0063  
          keypad_get_value@l_counter 0064            _lcd_8bit_send_custom_char 29B2  
          gpio_port_write_logic@port 0063                        ??_Timer0_Init 005B  
             ?_gpio_port_write_logic 0060                 _lcd_8bit_send_enable 2CEC  
                          ??___awdiv 005C                            ??___awmod 005C  
          keypad_get_value@r_counter 0065                 _lcd_8bit_send_string 2B90  
                             clear_0 2C40                     ___awdiv@quotient 005E  
                    ___awmod@divisor 005A                               _retpad 0054  
                             isa$std 0001                      ___awmod@counter 005C  
     lcd_8bit_send_char_data_pos@col 0070       lcd_8bit_send_char_data_pos@lcd 006E  
     lcd_8bit_send_char_data_pos@ret 0072          lcd_8bit_send_string_pos@col 0070  
        lcd_8bit_send_string_pos@lcd 006E       lcd_8bit_send_char_data_pos@row 006F  
        lcd_8bit_send_string_pos@ret 0072          lcd_8bit_send_string_pos@row 006F  
        lcd_8bit_send_string_pos@str 0071                     __end_of_tmr0_isr 2F14  
              __end_of_lcd_8bit_init 220A                         __pdataCOMRAM 0001  
              seven_segment_init@seg 0060                seven_segment_init@ret 0061  
                       __mediumconst 0000                               tblptrh 0FF7  
                             tblptrl 0FF6                               tblptru 0FF8  
            _Timer0_InterruptHandler 002E           lcd_8bit_send_command@count 0067  
                         __accesstop 0080              __end_of__initialization 2C46  
          keypad_u8check_press@F3072 0080                            ?_INT0_ISR 0055  
                          ?_INT1_ISR 0055                            ?_INT2_ISR 0055  
                 _seven_segment_init 25E2                        ___rparam_used 0001  
              ?_lcd_8bit_send_enable 0060                    RB5_ISR@RB5_Source 0055  
             ??_gpio_pin_write_logic 005A                       __pcstackCOMRAM 0055  
                ?_seven_segment_init 0060                         __pidataBANK0 2E75  
                          ?_TMR0_ISR 0055                            ?_TMR1_ISR 0055  
                      __end_of_heart 1019                ?_lcd_8bit_send_string 0068  
                      __end_of_smile 1021                  __end_of_Timer0_Init 292C  
                   lcd_8bit_init@lcd 0068                     lcd_8bit_init@ret 006A  
               ??_seven_segment_init 0061                _INT0_InterruptHandler 0048  
                         ??_INT0_ISR 0055                           ??_INT1_ISR 0055  
                         ??_INT2_ISR 0055                           __pnvCOMRAM 007B  
 gpio_pin_direction_init@_pin_config 0058                           ??_TMR0_ISR 0055  
                         ??_TMR1_ISR 0055         lcd_8bit_send_char_data@count 0067  
                    _Timer0_Reg_Size 2DDA                    RB7_ISR@RB7_Source 0055  
                            _RB4_ISR 2EEA                              _RB5_ISR 2ED0  
                            _RB6_ISR 2EB6                              _RB7_ISR 2E9C  
          _RB6_InterruptHandler_HIGH 003A                              i2u61_40 2EFE  
                            i2u61_41 2EFA                              i2u62_40 2EE4  
                            i2u62_41 2EE0                              i2u63_40 2ECA  
                            i2u63_41 2EC6                              i2u64_40 2EB0  
                            i2u64_41 2EAC                              i2u68_40 2E30  
                            i2u68_41 2E2C                              i2u69_48 2E36  
                            i2u69_49 2E48                    ?_keypad_get_value 0060  
                 ??_keypad_get_value 0062                           _btn_values 1001  
           _RB6_InterruptHandler_LOW 0038               ??_lcd_8bit_send_enable 0061  
                          ?_tmr0_isr 0055                              __Hparam 0000  
                        _Timer0_Init 289E                              __Lparam 0000  
             ??_lcd_8bit_send_string 006A                _lcd_8bit_send_command 2AA4  
                _gpio_pin_read_logic 27FA                              ___awdiv 251E  
                            ___awmod 274A                         __psmallconst 1000  
            _Timer1_InterruptHandler 0032                              __pcinit 2BFA  
                            __ramtop 1000             _lcd_8bit_send_string_pos 2CA2  
                            __ptext0 108E                              __ptext1 25E2  
                            __ptext2 2CA2                              __ptext3 2B90  
                            __ptext4 29B2                              __ptext5 2D2A  
                            __ptext6 269A                              __ptext7 2A2E  
                            __ptext8 1FBA                              __ptext9 2AA4  
                         _keypad_obj 0023                              _lcd_obj 0019  
                          _T0CONbits 0FD5                            _T1CONbits 0FCD  
                            _lat_reg 0001                     ___awmod@dividend 0058  
                            _minutes 0051                              _seconds 0053  
                            _pressed 004A                 ?_gpio_pin_read_logic 0058  
    lcd_8bit_send_char_data_pos@data 0071                keypad_init@keypad_obj 0060  
                     __pintcode_body 1CE4                 end_of_initialization 2C46  
                            int_func 1CE4              ??_gpio_port_write_logic 0061  
                         ??_tmr0_isr 0055              __end_of_Timer0_Reg_Size 2E14  
                         _timer0_obj 009A                              postdec1 0FE5  
                            postdec2 0FDD                              postinc0 0FEE  
                            postinc1 0FE6                              postinc2 0FDE  
                         _temp_hours 004E              _Timer0_prescaler_config 2C50  
              _INT1_InterruptHandler 0046                            _PORTBbits 0F81  
  __end_of_lcd_8bit_send_custom_char 2A2E                     _InterruptManager 0008  
              ??_gpio_pin_read_logic 005A         gpio_port_direction_init@port 005B  
         __end_of_Timer0_Mode_Select 2B90             _gpio_port_direction_init 2DA0  
   lcd_8bit_send_custom_char@mem_pos 0077               ?_lcd_8bit_send_command 0062  
              keypad_get_value@value 0061              _gpio_pin_direction_init 220A  
                      __pidataCOMRAM 2E4A                       _timer0_preload 002C  
                   Timer0_Init@timer 005A                       _timer1_preload 0030  
                start_initialization 2BFA              _lcd_8bit_send_char_data 2A2E  
          ??_Timer0_prescaler_config 0059                     ?_Timer0_Reg_Size 0058  
                        __pdataBANK0 0080                  _lcd_8bit_set_cursor 269A  
           lcd_8bit_send_command@lcd 0062             lcd_8bit_send_command@ret 0066  
                       _keybad_value 002B                             ?_RB4_ISR 0055  
                           ?_RB5_ISR 0055                             ?_RB6_ISR 0055  
                           ?_RB7_ISR 0055       lcd_8bit_send_custom_char@_char 0076  
                        __pbssCOMRAM 002C                        __pcstackBANK0 00A6  
     lcd_8bit_send_custom_char@count 007A                        ??_keypad_init 0061  
       ?_lcd_8bit_send_char_data_pos 006E                 ?_lcd_8bit_set_cursor 0068  
              _INT2_InterruptHandler 0044                 keypad_init@c_counter 0062  
                       ?_Timer0_Init 005A           ??_lcd_8bit_send_string_pos 0072  
          ??_gpio_pin_direction_init 0059                            __pintcode 0008  
        lcd_8bit_send_char_data@data 0063      gpio_pin_write_logic@_pin_config 0058  
                           ?___awdiv 0058                             ?___awmod 0058  
          gpio_pin_write_logic@logic 0059                          __smallconst 1000  
          _RB4_InterruptHandler_HIGH 0042                        _lcd_8bit_init 1FBA  
          _RB7_InterruptHandler_HIGH 0036                ??_lcd_8bit_set_cursor 006B  
       lcd_8bit_send_custom_char@col 0075         lcd_8bit_send_custom_char@lcd 0073  
       lcd_8bit_send_custom_char@ret 0079         lcd_8bit_send_custom_char@row 0074  
           _RB5_InterruptHandler_LOW 003C                             _INT0_ISR 2F1C  
                           _INT1_ISR 2F18                             _INT2_ISR 2F14  
                           _RB4_Flag 0018            ??_lcd_8bit_send_char_data 0064  
               keypad_init@r_counter 0063                             _RB5_Flag 0017  
                           _RB6_Flag 0016                  __end_of_keypad_init 29B2  
                           _RB7_Flag 0015                    RB4_ISR@RB4_Source 0055  
           __end_of_InterruptManager 1FBA                             _PIE1bits 0F9D  
                           i2u240_40 1D5C                             i2u240_41 1D58  
                           i2u241_40 1D6A                             i2u241_41 1D66  
                           i2u250_40 1DFC                             i2u242_40 1D7C  
                           i2u234_40 1CFC                             i2u250_41 1DF8  
                           i2u242_41 1D78                             i2u234_41 1CF8  
                           i2u251_40 1E0C                             i2u243_40 1D8A  
                           i2u235_40 1D0A                             i2u251_41 1E08  
                           i2u243_41 1D86                             i2u235_41 1D06  
      __end_of_gpio_port_write_logic 2DA0                             i2u260_40 1EAC  
                           i2u252_40 1E24                             i2u244_40 1D9C  
                           i2u236_40 1D1C                             i2u260_41 1EA8  
                           i2u252_41 1E20                             i2u244_41 1D98  
                           i2u236_41 1D18                             i2u261_40 1EBA  
                           i2u253_40 1E32                             i2u245_40 1DAA  
                           i2u237_40 1D2A                             i2u261_41 1EB6  
                           i2u253_41 1E2E                             i2u245_41 1DA6  
                           i2u237_41 1D26                             i2u270_40 1F50  
                           i2u262_40 1EC8                             i2u254_40 1E40  
                           i2u246_40 1DB8                             i2u238_40 1D3C  
                           i2u270_41 1F4C                             i2u262_41 1EC4  
                           i2u254_41 1E3C                             i2u246_41 1DB4  
                           i2u238_41 1D38                             i2u271_40 1F60  
                           i2u263_40 1ED8                             i2u255_40 1E50  
                           i2u247_40 1DC8                             i2u239_40 1D4A  
                           i2u271_41 1F5C                             i2u263_41 1ED4  
                           i2u255_41 1E4C                             i2u247_41 1DC4  
                           i2u239_41 1D46                             i2u272_40 1F78  
                           i2u264_40 1EF0                             i2u256_40 1E68  
                           i2u248_40 1DE0                             i2u272_41 1F74  
                           i2u264_41 1EEC                             i2u256_41 1E64  
                           i2u248_41 1DDC                             i2u273_40 1F86  
                           i2u265_40 1EFE                             i2u257_40 1E76  
                           i2u249_40 1DEE                             i2u273_41 1F82  
                           i2u265_41 1EFA                             i2u257_41 1E72  
                           i2u249_41 1DEA                             _PIR1bits 0F9E  
                           i2u274_40 1F94                             i2u266_40 1F0C  
                           i2u258_40 1E84                             i2u274_41 1F90  
                           i2u266_41 1F08                             i2u258_41 1E80  
                           i2u275_40 1FA4                             i2u267_40 1F1C  
                           i2u259_40 1E94                             i2u275_41 1FA0  
                           i2u267_41 1F18                             i2u259_41 1E90  
                           i2u268_40 1F34                             i2u268_41 1F30  
                           i2u269_40 1F42                             i2u269_41 1F3E  
                           _TMR0_ISR 2E14                             _TMR1_ISR 2F04  
                     ?_lcd_8bit_init 0068      __end_of_gpio_pin_direction_init 2330  
          lcd_8bit_set_cursor@column 006A           ??_gpio_port_direction_init 0059  
            gpio_pin_write_logic@ret 005F                          _INTCON2bits 0FF1  
                        _INTCON3bits 0FF0                            copy_data0 2C0E  
                          copy_data1 2C2E                          _first_digit 004D  
                       _second_digit 004C              lcd_8bit_send_enable@lcd 0060  
            lcd_8bit_send_enable@ret 0061               gpio_pin_read_logic@ret 005E  
            ??_lcd_8bit_send_command 0064                        _temp_seconeds 0052  
                           __Hrparam 0000                             __Lrparam 0000  
                  RB6_ISR@RB6_Source 0055                        _seven_seg_obj 00A1  
                 _Timer0_Mode_Select 2B1A      __end_of_lcd_8bit_send_char_data 2AA4  
                 __end_of_btn_values 1011          __end_of_gpio_pin_read_logic 289E  
         ?_lcd_8bit_send_custom_char 0073                  ?_Timer0_Mode_Select 0058  
         lcd_8bit_send_char_data@lcd 0062           lcd_8bit_send_char_data@ret 0066  
                           __ptext10 2CEC                             __ptext11 292C  
                           __ptext20 289E                             __ptext12 220A  
                           __ptext21 2C50                             __ptext13 2440  
                           __ptext30 2ED0                             __ptext22 2DDA  
                           __ptext14 2330                             __ptext31 2EEA  
                           __ptext23 2B1A                             __ptext15 27FA  
                           __ptext32 2F14                             __ptext16 2D66  
                           __ptext33 2F18                             __ptext25 2F04  
                           __ptext17 2DA0                             __ptext34 2F1C  
                           __ptext26 2E14                             __ptext18 274A  
                           __ptext35 0000                             __ptext27 2F10  
                           __ptext19 251E                             __ptext28 2E9C  
                           __ptext29 2EB6                          _keypad_init 292C  
   __end_of_lcd_8bit_send_string_pos 2CEC                             _tmr0_isr 2F10  
                   _keypad_get_value 2440                 ??_Timer0_Mode_Select 0059  
                           isa$xinst 0000                             int$flags 007C  
                           _port_reg 0090                             _tris_reg 000B  
                    ??_lcd_8bit_init 0069                       Timer0_Init@ret 005D  
                         _INTCONbits 0FF2                         _temp_minutes 0050  
       __end_of_gpio_pin_write_logic 2440         Timer0_prescaler_config@timer 0058  
                           intlevel2 0000              Timer0_Mode_Select@timer 0058  
         __end_of_seven_segment_init 269A     __end_of_gpio_port_direction_init 2DDA  
         gpio_port_write_logic@logic 0060           gpio_pin_direction_init@ret 005E  
            lcd_8bit_send_string@lcd 0068              lcd_8bit_send_string@ret 006A  
            lcd_8bit_send_string@str 0069                       keypad_init@ret 0061  
       lcd_8bit_send_command@command 0063             ?_Timer0_prescaler_config 0058  
                  ?_InterruptManager 0055  
